
csdemo.elf:     file format elf64-littleaarch64


Disassembly of section .text:

0000000000000000 <_vector_table>:
       0:	1400024e 	b	938 <_boot>
	...
     200:	14000061 	b	384 <SynchronousInterruptHandler>
	...
     280:	14000081 	b	484 <IRQInterruptHandler>
	...
     300:	1400009f 	b	57c <FIQInterruptHandler>
	...
     380:	14000097 	b	5dc <SErrorInterruptHandler>

0000000000000384 <SynchronousInterruptHandler>:
     384:	a9bf07e0 	.word	0xa9bf07e0
     388:	a9bf0fe2 	.word	0xa9bf0fe2
     38c:	a9bf17e4 	.word	0xa9bf17e4
     390:	a9bf1fe6 	.word	0xa9bf1fe6
     394:	a9bf27e8 	.word	0xa9bf27e8
     398:	a9bf2fea 	.word	0xa9bf2fea
     39c:	a9bf37ec 	.word	0xa9bf37ec
     3a0:	a9bf3fee 	.word	0xa9bf3fee
     3a4:	a9bf47f0 	.word	0xa9bf47f0
     3a8:	a9bf4ff2 	.word	0xa9bf4ff2
     3ac:	a9bf7bfd 	.word	0xa9bf7bfd
     3b0:	d53e5200 	.word	0xd53e5200
     3b4:	92661400 	.word	0x92661400
     3b8:	d2a38001 	.word	0xd2a38001
     3bc:	eb01001f 	.word	0xeb01001f
     3c0:	54000481 	.word	0x54000481
     3c4:	d53e1141 	.word	0xd53e1141
     3c8:	9275f821 	.word	0x9275f821
     3cc:	d51e1141 	.word	0xd51e1141
     3d0:	58002a80 	.word	0x58002a80
     3d4:	39400001 	.word	0x39400001
     3d8:	350000e1 	.word	0x350000e1
     3dc:	52800021 	.word	0x52800021
     3e0:	39000001 	.word	0x39000001
     3e4:	58002a20 	.word	0x58002a20
     3e8:	58002a41 	.word	0x58002a41
     3ec:	f9000020 	.word	0xf9000020
     3f0:	14000019 	.word	0x14000019

00000000000003f4 <storefloat>:
     3f4:	580029e1 	.word	0x580029e1
     3f8:	f9400020 	.word	0xf9400020
     3fc:	ac810400 	.word	0xac810400
     400:	ac810c02 	.word	0xac810c02
     404:	ac811404 	.word	0xac811404
     408:	ac811c06 	.word	0xac811c06
     40c:	ac812408 	.word	0xac812408
     410:	ac812c0a 	.word	0xac812c0a
     414:	ac81340c 	.word	0xac81340c
     418:	ac813c0e 	.word	0xac813c0e
     41c:	ac814410 	.word	0xac814410
     420:	ac814c12 	.word	0xac814c12
     424:	ac815414 	.word	0xac815414
     428:	ac815c16 	.word	0xac815c16
     42c:	ac816418 	.word	0xac816418
     430:	ac816c1a 	.word	0xac816c1a
     434:	ac81741c 	.word	0xac81741c
     438:	ac817c1e 	.word	0xac817c1e
     43c:	d53b4402 	.word	0xd53b4402
     440:	d53b4423 	.word	0xd53b4423
     444:	a8810c02 	.word	0xa8810c02
     448:	f9000020 	.word	0xf9000020
     44c:	14000002 	.word	0x14000002

0000000000000450 <synchronoushandler>:
     450:	940055c2 	.word	0x940055c2

0000000000000454 <restorecontext>:
     454:	a8c17bfd 	.word	0xa8c17bfd
     458:	a8c14ff2 	.word	0xa8c14ff2
     45c:	a8c147f0 	.word	0xa8c147f0
     460:	a8c13fee 	.word	0xa8c13fee
     464:	a8c137ec 	.word	0xa8c137ec
     468:	a8c12fea 	.word	0xa8c12fea
     46c:	a8c127e8 	.word	0xa8c127e8
     470:	a8c11fe6 	.word	0xa8c11fe6
     474:	a8c117e4 	.word	0xa8c117e4
     478:	a8c10fe2 	.word	0xa8c10fe2
     47c:	a8c107e0 	.word	0xa8c107e0
     480:	d69f03e0 	.word	0xd69f03e0

0000000000000484 <IRQInterruptHandler>:
     484:	a9bf07e0 	.word	0xa9bf07e0
     488:	a9bf0fe2 	.word	0xa9bf0fe2
     48c:	a9bf17e4 	.word	0xa9bf17e4
     490:	a9bf1fe6 	.word	0xa9bf1fe6
     494:	a9bf27e8 	.word	0xa9bf27e8
     498:	a9bf2fea 	.word	0xa9bf2fea
     49c:	a9bf37ec 	.word	0xa9bf37ec
     4a0:	a9bf3fee 	.word	0xa9bf3fee
     4a4:	a9bf47f0 	.word	0xa9bf47f0
     4a8:	a9bf4ff2 	.word	0xa9bf4ff2
     4ac:	a9bf7bfd 	.word	0xa9bf7bfd
     4b0:	d53e1140 	.word	0xd53e1140
     4b4:	d53e4021 	.word	0xd53e4021
     4b8:	d53e4002 	.word	0xd53e4002
     4bc:	a9bf07e0 	.word	0xa9bf07e0
     4c0:	f81f0fe2 	.word	0xf81f0fe2
     4c4:	d53e1141 	.word	0xd53e1141
     4c8:	b2760021 	.word	0xb2760021
     4cc:	d51e1141 	.word	0xd51e1141
     4d0:	9400559e 	.word	0x9400559e
     4d4:	d53e1140 	.word	0xd53e1140
     4d8:	f2760000 	.word	0xf2760000
     4dc:	540002e1 	.word	0x540002e1
     4e0:	58002281 	.word	0x58002281
     4e4:	f9400020 	.word	0xf9400020
     4e8:	a9ff0c02 	.word	0xa9ff0c02
     4ec:	d51b4402 	.word	0xd51b4402
     4f0:	d51b4423 	.word	0xd51b4423
     4f4:	adff7c1e 	.word	0xadff7c1e
     4f8:	adff741c 	.word	0xadff741c
     4fc:	adff6c1a 	.word	0xadff6c1a
     500:	adff6418 	.word	0xadff6418
     504:	adff5c16 	.word	0xadff5c16
     508:	adff5414 	.word	0xadff5414
     50c:	adff4c12 	.word	0xadff4c12
     510:	adff4410 	.word	0xadff4410
     514:	adff3c0e 	.word	0xadff3c0e
     518:	adff340c 	.word	0xadff340c
     51c:	adff2c0a 	.word	0xadff2c0a
     520:	adff2408 	.word	0xadff2408
     524:	adff1c06 	.word	0xadff1c06
     528:	adff1404 	.word	0xadff1404
     52c:	adff0c02 	.word	0xadff0c02
     530:	adff0400 	.word	0xadff0400
     534:	f9000020 	.word	0xf9000020

0000000000000538 <RestorePrevState>:
     538:	f84107e2 	.word	0xf84107e2
     53c:	a8c107e0 	.word	0xa8c107e0
     540:	d51e1140 	.word	0xd51e1140
     544:	d51e4021 	.word	0xd51e4021
     548:	d51e4002 	.word	0xd51e4002
     54c:	a8c17bfd 	.word	0xa8c17bfd
     550:	a8c14ff2 	.word	0xa8c14ff2
     554:	a8c147f0 	.word	0xa8c147f0
     558:	a8c13fee 	.word	0xa8c13fee
     55c:	a8c137ec 	.word	0xa8c137ec
     560:	a8c12fea 	.word	0xa8c12fea
     564:	a8c127e8 	.word	0xa8c127e8
     568:	a8c11fe6 	.word	0xa8c11fe6
     56c:	a8c117e4 	.word	0xa8c117e4
     570:	a8c10fe2 	.word	0xa8c10fe2
     574:	a8c107e0 	.word	0xa8c107e0
     578:	d69f03e0 	.word	0xd69f03e0

000000000000057c <FIQInterruptHandler>:
     57c:	a9bf07e0 	.word	0xa9bf07e0
     580:	a9bf0fe2 	.word	0xa9bf0fe2
     584:	a9bf17e4 	.word	0xa9bf17e4
     588:	a9bf1fe6 	.word	0xa9bf1fe6
     58c:	a9bf27e8 	.word	0xa9bf27e8
     590:	a9bf2fea 	.word	0xa9bf2fea
     594:	a9bf37ec 	.word	0xa9bf37ec
     598:	a9bf3fee 	.word	0xa9bf3fee
     59c:	a9bf47f0 	.word	0xa9bf47f0
     5a0:	a9bf4ff2 	.word	0xa9bf4ff2
     5a4:	a9bf7bfd 	.word	0xa9bf7bfd
     5a8:	94005564 	.word	0x94005564
     5ac:	a8c17bfd 	.word	0xa8c17bfd
     5b0:	a8c14ff2 	.word	0xa8c14ff2
     5b4:	a8c147f0 	.word	0xa8c147f0
     5b8:	a8c13fee 	.word	0xa8c13fee
     5bc:	a8c137ec 	.word	0xa8c137ec
     5c0:	a8c12fea 	.word	0xa8c12fea
     5c4:	a8c127e8 	.word	0xa8c127e8
     5c8:	a8c11fe6 	.word	0xa8c11fe6
     5cc:	a8c117e4 	.word	0xa8c117e4
     5d0:	a8c10fe2 	.word	0xa8c10fe2
     5d4:	a8c107e0 	.word	0xa8c107e0
     5d8:	d69f03e0 	.word	0xd69f03e0

00000000000005dc <SErrorInterruptHandler>:
     5dc:	a9bf07e0 	.word	0xa9bf07e0
     5e0:	a9bf0fe2 	.word	0xa9bf0fe2
     5e4:	a9bf17e4 	.word	0xa9bf17e4
     5e8:	a9bf1fe6 	.word	0xa9bf1fe6
     5ec:	a9bf27e8 	.word	0xa9bf27e8
     5f0:	a9bf2fea 	.word	0xa9bf2fea
     5f4:	a9bf37ec 	.word	0xa9bf37ec
     5f8:	a9bf3fee 	.word	0xa9bf3fee
     5fc:	a9bf47f0 	.word	0xa9bf47f0
     600:	a9bf4ff2 	.word	0xa9bf4ff2
     604:	a9bf7bfd 	.word	0xa9bf7bfd
     608:	94005558 	.word	0x94005558
     60c:	a8c17bfd 	.word	0xa8c17bfd
     610:	a8c14ff2 	.word	0xa8c14ff2
     614:	a8c147f0 	.word	0xa8c147f0
     618:	a8c13fee 	.word	0xa8c13fee
     61c:	a8c137ec 	.word	0xa8c137ec
     620:	a8c12fea 	.word	0xa8c12fea
     624:	a8c127e8 	.word	0xa8c127e8
     628:	a8c11fe6 	.word	0xa8c11fe6
     62c:	a8c117e4 	.word	0xa8c117e4
     630:	a8c10fe2 	.word	0xa8c10fe2
     634:	a8c107e0 	.word	0xa8c107e0
     638:	d69f03e0 	.word	0xd69f03e0
	...

0000000000000700 <FPUContext>:
	...

0000000000000910 <FPUContextBase>:
	...

0000000000000918 <FPUStatus>:
	...
     920:	00000918 	.word	0x00000918
     924:	00000000 	.word	0x00000000
     928:	00000700 	.word	0x00000700
     92c:	00000000 	.word	0x00000000
     930:	00000910 	.word	0x00000910
     934:	00000000 	.word	0x00000000

0000000000000938 <_boot>:
     938:	d2800000 	mov	x0, #0x0                   	// #0
     93c:	d2800001 	mov	x1, #0x0                   	// #0
     940:	d2800002 	mov	x2, #0x0                   	// #0
     944:	d2800003 	mov	x3, #0x0                   	// #0
     948:	d2800004 	mov	x4, #0x0                   	// #0
     94c:	d2800005 	mov	x5, #0x0                   	// #0
     950:	d2800006 	mov	x6, #0x0                   	// #0
     954:	d2800007 	mov	x7, #0x0                   	// #0
     958:	d2800008 	mov	x8, #0x0                   	// #0
     95c:	d2800009 	mov	x9, #0x0                   	// #0
     960:	d280000a 	mov	x10, #0x0                   	// #0
     964:	d280000b 	mov	x11, #0x0                   	// #0
     968:	d280000c 	mov	x12, #0x0                   	// #0
     96c:	d280000d 	mov	x13, #0x0                   	// #0
     970:	d280000e 	mov	x14, #0x0                   	// #0
     974:	d280000f 	mov	x15, #0x0                   	// #0
     978:	d2800010 	mov	x16, #0x0                   	// #0
     97c:	d2800011 	mov	x17, #0x0                   	// #0
     980:	d2800012 	mov	x18, #0x0                   	// #0
     984:	d2800013 	mov	x19, #0x0                   	// #0
     988:	d2800014 	mov	x20, #0x0                   	// #0
     98c:	d2800015 	mov	x21, #0x0                   	// #0
     990:	d2800016 	mov	x22, #0x0                   	// #0
     994:	d2800017 	mov	x23, #0x0                   	// #0
     998:	d2800018 	mov	x24, #0x0                   	// #0
     99c:	d2800019 	mov	x25, #0x0                   	// #0
     9a0:	d280001a 	mov	x26, #0x0                   	// #0
     9a4:	d280001b 	mov	x27, #0x0                   	// #0
     9a8:	d280001c 	mov	x28, #0x0                   	// #0
     9ac:	d280001d 	mov	x29, #0x0                   	// #0
     9b0:	d280001e 	mov	x30, #0x0                   	// #0

00000000000009b4 <OKToRun>:
     9b4:	d5384240 	mrs	x0, currentel
     9b8:	f100301f 	cmp	x0, #0xc
     9bc:	54000080 	b.eq	9cc <InitEL3>
     9c0:	f100101f 	cmp	x0, #0x4
     9c4:	54000740 	b.eq	aac <InitEL1>
     9c8:	1400003a 	b	ab0 <error>

00000000000009cc <InitEL3>:
     9cc:	58000be1 	ldr	x1, b48 <invalidateCaches_end+0xc>
     9d0:	d51ec001 	msr	vbar_el3, x1
     9d4:	d53800a0 	mrs	x0, mpidr_el1
     9d8:	92401c00 	and	x0, x0, #0xff
     9dc:	2a0003e0 	mov	w0, w0
     9e0:	18000b02 	ldr	w2, b40 <invalidateCaches_end+0x4>
     9e4:	52800103 	mov	w3, #0x8                   	// #8
     9e8:	1b037c00 	mul	w0, w0, w3
     9ec:	0b000042 	add	w2, w2, w0
     9f0:	f9000041 	str	x1, [x2]
     9f4:	58000ae2 	ldr	x2, b50 <invalidateCaches_end+0x14>
     9f8:	9100005f 	mov	sp, x2
     9fc:	d2800000 	mov	x0, #0x0                   	// #0
     a00:	b2760000 	orr	x0, x0, #0x400
     a04:	d51e1140 	msr	cptr_el3, x0
     a08:	58000a80 	ldr	x0, b58 <invalidateCaches_end+0x1c>
     a0c:	f900001f 	str	xzr, [x0]
     a10:	52800001 	mov	w1, #0x0                   	// #0
     a14:	32150021 	orr	w1, w1, #0x800
     a18:	32160021 	orr	w1, w1, #0x400
     a1c:	321d0021 	orr	w1, w1, #0x8
     a20:	321e0021 	orr	w1, w1, #0x4
     a24:	321f0021 	orr	w1, w1, #0x2
     a28:	d51e1101 	msr	scr_el3, x1
     a2c:	580009a0 	ldr	x0, b60 <invalidateCaches_end+0x24>
     a30:	d519f200 	msr	s3_1_c15_c2_0, x0
     a34:	580009a0 	ldr	x0, b68 <invalidateCaches_end+0x2c>
     a38:	d51be000 	msr	cntfrq_el0, x0
     a3c:	d539f220 	mrs	x0, s3_1_c15_c2_1
     a40:	b27a0000 	orr	x0, x0, #0x40
     a44:	d519f220 	msr	s3_1_c15_c2_1, x0
     a48:	d5033fdf 	isb
     a4c:	d50e871f 	tlbi	alle3
     a50:	d508751f 	ic	iallu
     a54:	94000018 	bl	ab4 <invalidate_dcaches>
     a58:	d5033f9f 	dsb	sy
     a5c:	d5033fdf 	isb
     a60:	58000881 	ldr	x1, b70 <invalidateCaches_end+0x34>
     a64:	d51e2001 	msr	ttbr0_el3, x1
     a68:	58000881 	ldr	x1, b78 <invalidateCaches_end+0x3c>
     a6c:	d51ea201 	msr	mair_el3, x1
     a70:	58000881 	ldr	x1, b80 <invalidateCaches_end+0x44>
     a74:	d51e2041 	msr	tcr_el3, x1
     a78:	d5033fdf 	isb
     a7c:	d53b4221 	mrs	x1, daif
     a80:	9277f821 	and	x1, x1, #0xfffffffffffffeff
     a84:	d51b4221 	msr	daif, x1
     a88:	d2800001 	mov	x1, #0x0                   	// #0
     a8c:	b2740021 	orr	x1, x1, #0x1000
     a90:	b27d0021 	orr	x1, x1, #0x8
     a94:	b27e0021 	orr	x1, x1, #0x4
     a98:	b2400021 	orr	x1, x1, #0x1
     a9c:	d51e1001 	msr	sctlr_el3, x1
     aa0:	d5033f9f 	dsb	sy
     aa4:	d5033fdf 	isb
     aa8:	1400543c 	b	15b98 <_startup>

0000000000000aac <InitEL1>:
     aac:	14000001 	b	ab0 <error>

0000000000000ab0 <error>:
     ab0:	14000000 	b	ab0 <error>

0000000000000ab4 <invalidate_dcaches>:
     ab4:	d5033bbf 	dmb	ish
     ab8:	d5390020 	mrs	x0, clidr_el1
     abc:	53186802 	ubfx	w2, w0, #24, #3
     ac0:	7100005f 	cmp	w2, #0x0
     ac4:	540003c0 	b.eq	b3c <invalidateCaches_end>
     ac8:	52800001 	mov	w1, #0x0                   	// #0

0000000000000acc <invalidateCaches_flush_level>:
     acc:	0b010423 	add	w3, w1, w1, lsl #1
     ad0:	1ac32403 	lsr	w3, w0, w3
     ad4:	53000863 	ubfx	w3, w3, #0, #3
     ad8:	7100087f 	cmp	w3, #0x2
     adc:	540002ab 	b.lt	b30 <invalidateCaches_next_level>
     ae0:	531f7824 	lsl	w4, w1, #1
     ae4:	d51a0004 	msr	csselr_el1, x4
     ae8:	d5033fdf 	isb
     aec:	d5390004 	mrs	x4, ccsidr_el1
     af0:	53000883 	ubfx	w3, w4, #0, #3
     af4:	11000863 	add	w3, w3, #0x2
     af8:	530d6c85 	ubfx	w5, w4, #13, #15
     afc:	53033084 	ubfx	w4, w4, #3, #10
     b00:	5ac01086 	clz	w6, w4

0000000000000b04 <invalidateCaches_flush_set>:
     b04:	2a0403e8 	mov	w8, w4

0000000000000b08 <invalidateCaches_flush_way>:
     b08:	531f7827 	lsl	w7, w1, #1
     b0c:	1ac320a9 	lsl	w9, w5, w3
     b10:	2a0900e7 	orr	w7, w7, w9
     b14:	1ac62109 	lsl	w9, w8, w6
     b18:	2a0900e7 	orr	w7, w7, w9
     b1c:	d5087e47 	dc	cisw, x7
     b20:	71000508 	subs	w8, w8, #0x1
     b24:	54ffff2a 	b.ge	b08 <invalidateCaches_flush_way>
     b28:	710004a5 	subs	w5, w5, #0x1
     b2c:	54fffeca 	b.ge	b04 <invalidateCaches_flush_set>

0000000000000b30 <invalidateCaches_next_level>:
     b30:	11000421 	add	w1, w1, #0x1
     b34:	6b01005f 	cmp	w2, w1
     b38:	54fffcac 	b.gt	acc <invalidateCaches_flush_level>

0000000000000b3c <invalidateCaches_end>:
     b3c:	d65f03c0 	ret
     b40:	fd5c0040 	.word	0xfd5c0040
	...
     b50:	000ce380 	.word	0x000ce380
     b54:	00000000 	.word	0x00000000
     b58:	00000918 	.word	0x00000918
     b5c:	00000000 	.word	0x00000000
     b60:	080ca000 	.word	0x080ca000
     b64:	00000000 	.word	0x00000000
     b68:	05f5dd18 	.word	0x05f5dd18
     b6c:	00000000 	.word	0x00000000
     b70:	00037000 	.word	0x00037000
     b74:	00000000 	.word	0x00000000
     b78:	0400ff44 	.word	0x0400ff44
     b7c:	000000bb 	.word	0x000000bb
     b80:	80823518 	.word	0x80823518
     b84:	00000000 	.word	0x00000000

0000000000000b88 <deregister_tm_clones>:
     b88:	d00001a1 	adrp	x1, 36000 <lconv+0x50>
     b8c:	9100a021 	add	x1, x1, #0x28
     b90:	91001c21 	add	x1, x1, #0x7
     b94:	d00001a0 	adrp	x0, 36000 <lconv+0x50>
     b98:	9100a000 	add	x0, x0, #0x28
     b9c:	cb000021 	sub	x1, x1, x0
     ba0:	f100383f 	cmp	x1, #0xe
     ba4:	540000a9 	b.ls	bb8 <deregister_tm_clones+0x30>
     ba8:	580000c1 	ldr	x1, bc0 <deregister_tm_clones+0x38>
     bac:	b4000061 	cbz	x1, bb8 <deregister_tm_clones+0x30>
     bb0:	d61f0020 	br	x1
     bb4:	d503201f 	nop
     bb8:	d65f03c0 	ret
     bbc:	d503201f 	nop
	...

0000000000000bc8 <register_tm_clones>:
     bc8:	d00001a1 	adrp	x1, 36000 <lconv+0x50>
     bcc:	d00001a0 	adrp	x0, 36000 <lconv+0x50>
     bd0:	9100a021 	add	x1, x1, #0x28
     bd4:	9100a000 	add	x0, x0, #0x28
     bd8:	cb000021 	sub	x1, x1, x0
     bdc:	9343fc21 	asr	x1, x1, #3
     be0:	8b41fc21 	add	x1, x1, x1, lsr #63
     be4:	9341fc21 	asr	x1, x1, #1
     be8:	b4000081 	cbz	x1, bf8 <register_tm_clones+0x30>
     bec:	580000a2 	ldr	x2, c00 <register_tm_clones+0x38>
     bf0:	b4000042 	cbz	x2, bf8 <register_tm_clones+0x30>
     bf4:	d61f0040 	br	x2
     bf8:	d65f03c0 	ret
     bfc:	d503201f 	nop
	...

0000000000000c08 <__do_global_dtors_aux>:
     c08:	a9be7bfd 	stp	x29, x30, [sp,#-32]!
     c0c:	910003fd 	mov	x29, sp
     c10:	f9000bf3 	str	x19, [sp,#16]
     c14:	d00001f3 	adrp	x19, 3e000 <__exidx_end>
     c18:	39420260 	ldrb	w0, [x19,#128]
     c1c:	35000120 	cbnz	w0, c40 <__do_global_dtors_aux+0x38>
     c20:	97ffffda 	bl	b88 <deregister_tm_clones>
     c24:	58000160 	ldr	x0, c50 <__do_global_dtors_aux+0x48>
     c28:	b4000080 	cbz	x0, c38 <__do_global_dtors_aux+0x30>
     c2c:	d00001a0 	adrp	x0, 36000 <lconv+0x50>
     c30:	91010000 	add	x0, x0, #0x40
     c34:	d503201f 	nop
     c38:	52800020 	mov	w0, #0x1                   	// #1
     c3c:	39020260 	strb	w0, [x19,#128]
     c40:	f9400bf3 	ldr	x19, [sp,#16]
     c44:	a8c27bfd 	ldp	x29, x30, [sp],#32
     c48:	d65f03c0 	ret
     c4c:	d503201f 	nop
	...

0000000000000c58 <frame_dummy>:
     c58:	a9bf7bfd 	stp	x29, x30, [sp,#-16]!
     c5c:	910003fd 	mov	x29, sp
     c60:	58000240 	ldr	x0, ca8 <frame_dummy+0x50>
     c64:	b40000c0 	cbz	x0, c7c <frame_dummy+0x24>
     c68:	d00001e1 	adrp	x1, 3e000 <__exidx_end>
     c6c:	d00001a0 	adrp	x0, 36000 <lconv+0x50>
     c70:	91022021 	add	x1, x1, #0x88
     c74:	91010000 	add	x0, x0, #0x40
     c78:	d503201f 	nop
     c7c:	d00001a0 	adrp	x0, 36000 <lconv+0x50>
     c80:	91008000 	add	x0, x0, #0x20
     c84:	f9400001 	ldr	x1, [x0]
     c88:	b5000081 	cbnz	x1, c98 <frame_dummy+0x40>
     c8c:	a8c17bfd 	ldp	x29, x30, [sp],#16
     c90:	17ffffce 	b	bc8 <register_tm_clones>
     c94:	d503201f 	nop
     c98:	580000c1 	ldr	x1, cb0 <frame_dummy+0x58>
     c9c:	b4ffff81 	cbz	x1, c8c <frame_dummy+0x34>
     ca0:	d63f0020 	blr	x1
     ca4:	17fffffa 	b	c8c <frame_dummy+0x34>
	...

0000000000000cb8 <_mainCRTStartup>:
     cb8:	100007c1 	adr	x1, db0 <_cpu_init_hook+0x4>
     cbc:	528002c0 	mov	w0, #0x16                  	// #22
     cc0:	d45e0000 	hlt	#0xf000
     cc4:	58000760 	ldr	x0, db0 <_cpu_init_hook+0x4>
     cc8:	f9400401 	ldr	x1, [x0,#8]
     ccc:	927cec20 	and	x0, x1, #0xfffffffffffffff0
     cd0:	9100001f 	mov	sp, x0
     cd4:	d280001d 	mov	x29, #0x0                   	// #0
     cd8:	a9bf77fd 	stp	x29, x29, [sp,#-16]!
     cdc:	910003fd 	mov	x29, sp
     ce0:	94000033 	bl	dac <_cpu_init_hook>
     ce4:	580006a0 	ldr	x0, db8 <_cpu_init_hook+0xc>
     ce8:	52800001 	mov	w1, #0x0                   	// #0
     cec:	580006a2 	ldr	x2, dc0 <_cpu_init_hook+0x14>
     cf0:	cb000042 	sub	x2, x2, x0
     cf4:	94005f93 	bl	18b40 <memset>
     cf8:	9400538e 	bl	15b30 <initialise_monitor_handles>
     cfc:	58000660 	ldr	x0, dc8 <_cpu_init_hook+0x1c>
     d00:	940053fa 	bl	15ce8 <atexit>
     d04:	94005c13 	bl	17d50 <__libc_init_array>
     d08:	10000681 	adr	x1, dd8 <_cpu_init_hook+0x2c>
     d0c:	528002a0 	mov	w0, #0x15                  	// #21
     d10:	d45e0000 	hlt	#0xf000
     d14:	58000628 	ldr	x8, dd8 <_cpu_init_hook+0x2c>
     d18:	d2800000 	mov	x0, #0x0                   	// #0
     d1c:	910003e1 	mov	x1, sp
     d20:	58000582 	ldr	x2, dd0 <_cpu_init_hook+0x24>
     d24:	f81f8c20 	str	x0, [x1,#-8]!
     d28:	38401503 	ldrb	w3, [x8],#1
     d2c:	34000243 	cbz	w3, d74 <_mainCRTStartup+0xbc>
     d30:	7100807f 	cmp	w3, #0x20
     d34:	54ffffa0 	b.eq	d28 <_mainCRTStartup+0x70>
     d38:	52800404 	mov	w4, #0x20                  	// #32
     d3c:	71008869 	subs	w9, w3, #0x22
     d40:	d1000508 	sub	x8, x8, #0x1
     d44:	7a451924 	ccmp	w9, #0x5, #0x4, ne
     d48:	1a840064 	csel	w4, w3, w4, eq
     d4c:	9a881508 	cinc	x8, x8, eq
     d50:	f81f8c28 	str	x8, [x1,#-8]!
     d54:	91000400 	add	x0, x0, #0x1
     d58:	38401503 	ldrb	w3, [x8],#1
     d5c:	340000c3 	cbz	w3, d74 <_mainCRTStartup+0xbc>
     d60:	6b03009f 	cmp	w4, w3
     d64:	54ffffa1 	b.ne	d58 <_mainCRTStartup+0xa0>
     d68:	52800004 	mov	w4, #0x0                   	// #0
     d6c:	381ff104 	sturb	w4, [x8,#-1]
     d70:	17ffffee 	b	d28 <_mainCRTStartup+0x70>
     d74:	91000023 	add	x3, x1, #0x0
     d78:	8b204c24 	add	x4, x1, w0, uxtw #3
     d7c:	eb03009f 	cmp	x4, x3
     d80:	540000e3 	b.cc	d9c <_mainCRTStartup+0xe4>
     d84:	f85f8085 	ldur	x5, [x4,#-8]
     d88:	f9400066 	ldr	x6, [x3]
     d8c:	f81f8c86 	str	x6, [x4,#-8]!
     d90:	f8008465 	str	x5, [x3],#8
     d94:	eb03009f 	cmp	x4, x3
     d98:	54ffff68 	b.hi	d84 <_mainCRTStartup+0xcc>
     d9c:	927cec24 	and	x4, x1, #0xfffffffffffffff0
     da0:	9100009f 	mov	sp, x4
     da4:	94000055 	bl	ef8 <main>
     da8:	140053d6 	b	15d00 <exit>

0000000000000dac <_cpu_init_hook>:
     dac:	d65f03c0 	.word	0xd65f03c0
     db0:	00034588 	.word	0x00034588
     db4:	00000000 	.word	0x00000000
     db8:	0003e080 	.word	0x0003e080
     dbc:	00000000 	.word	0x00000000
     dc0:	0003e380 	.word	0x0003e380
     dc4:	00000000 	.word	0x00000000
     dc8:	00016660 	.word	0x00016660
     dcc:	00000000 	.word	0x00000000
     dd0:	000345a8 	.word	0x000345a8
     dd4:	00000000 	.word	0x00000000
     dd8:	000345b0 	.word	0x000345b0
     ddc:	00000000 	.word	0x00000000
     de0:	000000ff 	.word	0x000000ff
     de4:	00000000 	.word	0x00000000

0000000000000de8 <stop_app>:
     de8:	a9be7bfd 	stp	x29, x30, [sp,#-32]!
     dec:	910003fd 	mov	x29, sp
     df0:	900001a0 	adrp	x0, 34000 <__hexdig+0x420>
     df4:	913fa000 	add	x0, x0, #0xfe8
     df8:	f9400000 	ldr	x0, [x0]
     dfc:	f9400c01 	ldr	x1, [x0,#24]
     e00:	b0000160 	adrp	x0, 2d000 <__hexnan+0xf8>
     e04:	91290000 	add	x0, x0, #0xa40
     e08:	aa0103e3 	mov	x3, x1
     e0c:	d28006e2 	mov	x2, #0x37                  	// #55
     e10:	d2800021 	mov	x1, #0x1                   	// #1
     e14:	94005b73 	bl	17be0 <fwrite>
     e18:	900001a0 	adrp	x0, 34000 <__hexdig+0x420>
     e1c:	913fa000 	add	x0, x0, #0xfe8
     e20:	f9400000 	ldr	x0, [x0]
     e24:	f9400c00 	ldr	x0, [x0,#24]
     e28:	9400549e 	bl	160a0 <fflush>
     e2c:	900001a0 	adrp	x0, 34000 <__hexdig+0x420>
     e30:	913fa000 	add	x0, x0, #0xfe8
     e34:	f9400000 	ldr	x0, [x0]
     e38:	f9400400 	ldr	x0, [x0,#8]
     e3c:	b9400801 	ldr	w1, [x0,#8]
     e40:	51000421 	sub	w1, w1, #0x1
     e44:	b9000801 	str	w1, [x0,#8]
     e48:	b9400800 	ldr	w0, [x0,#8]
     e4c:	7100001f 	cmp	w0, #0x0
     e50:	5400018a 	b.ge	e80 <stop_app+0x98>
     e54:	900001a0 	adrp	x0, 34000 <__hexdig+0x420>
     e58:	913fa000 	add	x0, x0, #0xfe8
     e5c:	f9400002 	ldr	x2, [x0]
     e60:	900001a0 	adrp	x0, 34000 <__hexdig+0x420>
     e64:	913fa000 	add	x0, x0, #0xfe8
     e68:	f9400000 	ldr	x0, [x0]
     e6c:	f9400400 	ldr	x0, [x0,#8]
     e70:	aa0003e1 	mov	x1, x0
     e74:	aa0203e0 	mov	x0, x2
     e78:	940062d8 	bl	199d8 <__srget_r>
     e7c:	14000009 	b	ea0 <stop_app+0xb8>
     e80:	900001a0 	adrp	x0, 34000 <__hexdig+0x420>
     e84:	913fa000 	add	x0, x0, #0xfe8
     e88:	f9400000 	ldr	x0, [x0]
     e8c:	f9400401 	ldr	x1, [x0,#8]
     e90:	f9400020 	ldr	x0, [x1]
     e94:	91000402 	add	x2, x0, #0x1
     e98:	f9000022 	str	x2, [x1]
     e9c:	39400000 	ldrb	w0, [x0]
     ea0:	b9001fa0 	str	w0, [x29,#28]
     ea4:	b9401fa0 	ldr	w0, [x29,#28]
     ea8:	7101c41f 	cmp	w0, #0x71
     eac:	54000080 	b.eq	ebc <stop_app+0xd4>
     eb0:	b9401fa0 	ldr	w0, [x29,#28]
     eb4:	7101441f 	cmp	w0, #0x51
     eb8:	540001a1 	b.ne	eec <stop_app+0x104>
     ebc:	900001a0 	adrp	x0, 34000 <__hexdig+0x420>
     ec0:	913fa000 	add	x0, x0, #0xfe8
     ec4:	f9400000 	ldr	x0, [x0]
     ec8:	f9400c01 	ldr	x1, [x0,#24]
     ecc:	b0000160 	adrp	x0, 2d000 <__hexnan+0xf8>
     ed0:	9129e000 	add	x0, x0, #0xa78
     ed4:	aa0103e3 	mov	x3, x1
     ed8:	d2800342 	mov	x2, #0x1a                  	// #26
     edc:	d2800021 	mov	x1, #0x1                   	// #1
     ee0:	94005b40 	bl	17be0 <fwrite>
     ee4:	52800020 	mov	w0, #0x1                   	// #1
     ee8:	94005386 	bl	15d00 <exit>
     eec:	d503201f 	nop
     ef0:	a8c27bfd 	ldp	x29, x30, [sp],#32
     ef4:	d65f03c0 	ret

0000000000000ef8 <main>:
     ef8:	a9be7bfd 	stp	x29, x30, [sp,#-32]!
     efc:	910003fd 	mov	x29, sp
     f00:	b9001fa0 	str	w0, [x29,#28]
     f04:	f9000ba1 	str	x1, [x29,#16]
     f08:	9400528d 	bl	1593c <init_platform>
     f0c:	b0000160 	adrp	x0, 2d000 <__hexnan+0xf8>
     f10:	912a6000 	add	x0, x0, #0xa98
     f14:	94006083 	bl	19120 <puts>
     f18:	940052c1 	bl	15a1c <calculatePrimes>
     f1c:	b0000160 	adrp	x0, 2d000 <__hexnan+0xf8>
     f20:	912ae000 	add	x0, x0, #0xab8
     f24:	9400607f 	bl	19120 <puts>
     f28:	9400528c 	bl	15958 <cleanup_platform>
     f2c:	52800000 	mov	w0, #0x0                   	// #0
     f30:	a8c27bfd 	ldp	x29, x30, [sp],#32
     f34:	d65f03c0 	ret

0000000000000f38 <_diagf>:
     f38:	a9ae7bfd 	stp	x29, x30, [sp,#-288]!
     f3c:	910003fd 	mov	x29, sp
     f40:	f9001fa0 	str	x0, [x29,#56]
     f44:	f90077a1 	str	x1, [x29,#232]
     f48:	f9007ba2 	str	x2, [x29,#240]
     f4c:	f9007fa3 	str	x3, [x29,#248]
     f50:	f90083a4 	str	x4, [x29,#256]
     f54:	f90087a5 	str	x5, [x29,#264]
     f58:	f9008ba6 	str	x6, [x29,#272]
     f5c:	f9008fa7 	str	x7, [x29,#280]
     f60:	3d801ba0 	str	q0, [x29,#96]
     f64:	3d801fa1 	str	q1, [x29,#112]
     f68:	3d8023a2 	str	q2, [x29,#128]
     f6c:	3d8027a3 	str	q3, [x29,#144]
     f70:	3d802ba4 	str	q4, [x29,#160]
     f74:	3d802fa5 	str	q5, [x29,#176]
     f78:	3d8033a6 	str	q6, [x29,#192]
     f7c:	3d8037a7 	str	q7, [x29,#208]
     f80:	910483a0 	add	x0, x29, #0x120
     f84:	f90023a0 	str	x0, [x29,#64]
     f88:	910483a0 	add	x0, x29, #0x120
     f8c:	f90027a0 	str	x0, [x29,#72]
     f90:	910383a0 	add	x0, x29, #0xe0
     f94:	f9002ba0 	str	x0, [x29,#80]
     f98:	128006e0 	mov	w0, #0xffffffc8            	// #-56
     f9c:	b9005ba0 	str	w0, [x29,#88]
     fa0:	12800fe0 	mov	w0, #0xffffff80            	// #-128
     fa4:	b9005fa0 	str	w0, [x29,#92]
     fa8:	f9401fa0 	ldr	x0, [x29,#56]
     fac:	39400000 	ldrb	w0, [x0]
     fb0:	7100841f 	cmp	w0, #0x21
     fb4:	540001c1 	b.ne	fec <_diagf+0xb4>
     fb8:	900001a0 	adrp	x0, 34000 <__hexdig+0x420>
     fbc:	913fa000 	add	x0, x0, #0xfe8
     fc0:	f9400000 	ldr	x0, [x0]
     fc4:	f9400c01 	ldr	x1, [x0,#24]
     fc8:	b0000160 	adrp	x0, 2d000 <__hexnan+0xf8>
     fcc:	912b4000 	add	x0, x0, #0xad0
     fd0:	aa0103e3 	mov	x3, x1
     fd4:	d2800062 	mov	x2, #0x3                   	// #3
     fd8:	d2800021 	mov	x1, #0x1                   	// #1
     fdc:	94005b01 	bl	17be0 <fwrite>
     fe0:	f9401fa0 	ldr	x0, [x29,#56]
     fe4:	91000400 	add	x0, x0, #0x1
     fe8:	f9001fa0 	str	x0, [x29,#56]
     fec:	900001a0 	adrp	x0, 34000 <__hexdig+0x420>
     ff0:	913fa000 	add	x0, x0, #0xfe8
     ff4:	f9400000 	ldr	x0, [x0]
     ff8:	f9400c04 	ldr	x4, [x0,#24]
     ffc:	910043a2 	add	x2, x29, #0x10
    1000:	910103a3 	add	x3, x29, #0x40
    1004:	a9400460 	ldp	x0, x1, [x3]
    1008:	a9000440 	stp	x0, x1, [x2]
    100c:	a9410460 	ldp	x0, x1, [x3,#16]
    1010:	a9010440 	stp	x0, x1, [x2,#16]
    1014:	910043a0 	add	x0, x29, #0x10
    1018:	aa0003e2 	mov	x2, x0
    101c:	f9401fa1 	ldr	x1, [x29,#56]
    1020:	aa0403e0 	mov	x0, x4
    1024:	9400887f 	bl	23220 <vfprintf>
    1028:	f0000180 	adrp	x0, 34000 <__hexdig+0x420>
    102c:	913fa000 	add	x0, x0, #0xfe8
    1030:	f9400000 	ldr	x0, [x0]
    1034:	f9400c00 	ldr	x0, [x0,#24]
    1038:	9400541a 	bl	160a0 <fflush>
    103c:	d503201f 	nop
    1040:	a8d27bfd 	ldp	x29, x30, [sp],#288
    1044:	d65f03c0 	ret

0000000000001048 <cs_device_is_non_mmio>:
    1048:	d10043ff 	sub	sp, sp, #0x10
    104c:	f90007e0 	str	x0, [sp,#8]
    1050:	f94007e0 	ldr	x0, [sp,#8]
    1054:	f9400800 	ldr	x0, [x0,#16]
    1058:	f100041f 	cmp	x0, #0x1
    105c:	1a9f17e0 	cset	w0, eq
    1060:	12001c00 	and	w0, w0, #0xff
    1064:	910043ff 	add	sp, sp, #0x10
    1068:	d65f03c0 	ret

000000000000106c <cs_device_is_funnel>:
    106c:	d10043ff 	sub	sp, sp, #0x10
    1070:	f90007e0 	str	x0, [sp,#8]
    1074:	f94007e0 	ldr	x0, [sp,#8]
    1078:	b9404400 	ldr	w0, [x0,#68]
    107c:	7100041f 	cmp	w0, #0x1
    1080:	1a9f97e0 	cset	w0, hi
    1084:	12001c00 	and	w0, w0, #0xff
    1088:	910043ff 	add	sp, sp, #0x10
    108c:	d65f03c0 	ret

0000000000001090 <cs_device_is_replicator>:
    1090:	d10043ff 	sub	sp, sp, #0x10
    1094:	f90007e0 	str	x0, [sp,#8]
    1098:	f94007e0 	ldr	x0, [sp,#8]
    109c:	b9402c00 	ldr	w0, [x0,#44]
    10a0:	121b0000 	and	w0, w0, #0x20
    10a4:	7100001f 	cmp	w0, #0x0
    10a8:	540000e0 	b.eq	10c4 <cs_device_is_replicator+0x34>
    10ac:	f94007e0 	ldr	x0, [sp,#8]
    10b0:	b9404800 	ldr	w0, [x0,#72]
    10b4:	7100041f 	cmp	w0, #0x1
    10b8:	54000069 	b.ls	10c4 <cs_device_is_replicator+0x34>
    10bc:	52800020 	mov	w0, #0x1                   	// #1
    10c0:	14000002 	b	10c8 <cs_device_is_replicator+0x38>
    10c4:	52800000 	mov	w0, #0x0                   	// #0
    10c8:	910043ff 	add	sp, sp, #0x10
    10cc:	d65f03c0 	ret

00000000000010d0 <cs_device_type_name>:
    10d0:	d10043ff 	sub	sp, sp, #0x10
    10d4:	f90007e0 	str	x0, [sp,#8]
    10d8:	f94007e0 	ldr	x0, [sp,#8]
    10dc:	b9402400 	ldr	w0, [x0,#36]
    10e0:	71001c1f 	cmp	w0, #0x7
    10e4:	54000660 	b.eq	11b0 <cs_device_type_name+0xe0>
    10e8:	71001c1f 	cmp	w0, #0x7
    10ec:	540001e8 	b.hi	1128 <cs_device_type_name+0x58>
    10f0:	71000c1f 	cmp	w0, #0x3
    10f4:	54000460 	b.eq	1180 <cs_device_type_name+0xb0>
    10f8:	71000c1f 	cmp	w0, #0x3
    10fc:	540000c8 	b.hi	1114 <cs_device_type_name+0x44>
    1100:	7100041f 	cmp	w0, #0x1
    1104:	54000320 	b.eq	1168 <cs_device_type_name+0x98>
    1108:	7100081f 	cmp	w0, #0x2
    110c:	54000340 	b.eq	1174 <cs_device_type_name+0xa4>
    1110:	1400003d 	b	1204 <cs_device_type_name+0x134>
    1114:	7100141f 	cmp	w0, #0x5
    1118:	54000400 	b.eq	1198 <cs_device_type_name+0xc8>
    111c:	7100141f 	cmp	w0, #0x5
    1120:	54000428 	b.hi	11a4 <cs_device_type_name+0xd4>
    1124:	1400001a 	b	118c <cs_device_type_name+0xbc>
    1128:	7100281f 	cmp	w0, #0xa
    112c:	54000540 	b.eq	11d4 <cs_device_type_name+0x104>
    1130:	7100281f 	cmp	w0, #0xa
    1134:	540000c8 	b.hi	114c <cs_device_type_name+0x7c>
    1138:	7100201f 	cmp	w0, #0x8
    113c:	54000400 	b.eq	11bc <cs_device_type_name+0xec>
    1140:	7100241f 	cmp	w0, #0x9
    1144:	54000420 	b.eq	11c8 <cs_device_type_name+0xf8>
    1148:	1400002f 	b	1204 <cs_device_type_name+0x134>
    114c:	7100301f 	cmp	w0, #0xc
    1150:	540004e0 	b.eq	11ec <cs_device_type_name+0x11c>
    1154:	7100301f 	cmp	w0, #0xc
    1158:	54000443 	b.cc	11e0 <cs_device_type_name+0x110>
    115c:	7100341f 	cmp	w0, #0xd
    1160:	540004c0 	b.eq	11f8 <cs_device_type_name+0x128>
    1164:	14000028 	b	1204 <cs_device_type_name+0x134>
    1168:	90000160 	adrp	x0, 2d000 <__hexnan+0xf8>
    116c:	912b6000 	add	x0, x0, #0xad8
    1170:	14000027 	b	120c <cs_device_type_name+0x13c>
    1174:	90000160 	adrp	x0, 2d000 <__hexnan+0xf8>
    1178:	912b8000 	add	x0, x0, #0xae0
    117c:	14000024 	b	120c <cs_device_type_name+0x13c>
    1180:	90000160 	adrp	x0, 2d000 <__hexnan+0xf8>
    1184:	912ba000 	add	x0, x0, #0xae8
    1188:	14000021 	b	120c <cs_device_type_name+0x13c>
    118c:	90000160 	adrp	x0, 2d000 <__hexnan+0xf8>
    1190:	912bc000 	add	x0, x0, #0xaf0
    1194:	1400001e 	b	120c <cs_device_type_name+0x13c>
    1198:	90000160 	adrp	x0, 2d000 <__hexnan+0xf8>
    119c:	912be000 	add	x0, x0, #0xaf8
    11a0:	1400001b 	b	120c <cs_device_type_name+0x13c>
    11a4:	90000160 	adrp	x0, 2d000 <__hexnan+0xf8>
    11a8:	912c2000 	add	x0, x0, #0xb08
    11ac:	14000018 	b	120c <cs_device_type_name+0x13c>
    11b0:	90000160 	adrp	x0, 2d000 <__hexnan+0xf8>
    11b4:	912c4000 	add	x0, x0, #0xb10
    11b8:	14000015 	b	120c <cs_device_type_name+0x13c>
    11bc:	90000160 	adrp	x0, 2d000 <__hexnan+0xf8>
    11c0:	912c6000 	add	x0, x0, #0xb18
    11c4:	14000012 	b	120c <cs_device_type_name+0x13c>
    11c8:	90000160 	adrp	x0, 2d000 <__hexnan+0xf8>
    11cc:	912c8000 	add	x0, x0, #0xb20
    11d0:	1400000f 	b	120c <cs_device_type_name+0x13c>
    11d4:	90000160 	adrp	x0, 2d000 <__hexnan+0xf8>
    11d8:	912ca000 	add	x0, x0, #0xb28
    11dc:	1400000c 	b	120c <cs_device_type_name+0x13c>
    11e0:	90000160 	adrp	x0, 2d000 <__hexnan+0xf8>
    11e4:	912cc000 	add	x0, x0, #0xb30
    11e8:	14000009 	b	120c <cs_device_type_name+0x13c>
    11ec:	90000160 	adrp	x0, 2d000 <__hexnan+0xf8>
    11f0:	912ce000 	add	x0, x0, #0xb38
    11f4:	14000006 	b	120c <cs_device_type_name+0x13c>
    11f8:	90000160 	adrp	x0, 2d000 <__hexnan+0xf8>
    11fc:	912d0000 	add	x0, x0, #0xb40
    1200:	14000003 	b	120c <cs_device_type_name+0x13c>
    1204:	90000160 	adrp	x0, 2d000 <__hexnan+0xf8>
    1208:	912d2000 	add	x0, x0, #0xb48
    120c:	910043ff 	add	sp, sp, #0x10
    1210:	d65f03c0 	ret

0000000000001214 <cs_report_error>:
    1214:	a9a77bfd 	stp	x29, x30, [sp,#-400]!
    1218:	910003fd 	mov	x29, sp
    121c:	f9001fa0 	str	x0, [x29,#56]
    1220:	f900afa1 	str	x1, [x29,#344]
    1224:	f900b3a2 	str	x2, [x29,#352]
    1228:	f900b7a3 	str	x3, [x29,#360]
    122c:	f900bba4 	str	x4, [x29,#368]
    1230:	f900bfa5 	str	x5, [x29,#376]
    1234:	f900c3a6 	str	x6, [x29,#384]
    1238:	f900c7a7 	str	x7, [x29,#392]
    123c:	3d8037a0 	str	q0, [x29,#208]
    1240:	3d803ba1 	str	q1, [x29,#224]
    1244:	3d803fa2 	str	q2, [x29,#240]
    1248:	910403a0 	add	x0, x29, #0x100
    124c:	3d800003 	str	q3, [x0]
    1250:	910403a0 	add	x0, x29, #0x100
    1254:	3d800404 	str	q4, [x0,#16]
    1258:	910403a0 	add	x0, x29, #0x100
    125c:	3d800805 	str	q5, [x0,#32]
    1260:	910403a0 	add	x0, x29, #0x100
    1264:	3d800c06 	str	q6, [x0,#48]
    1268:	910403a0 	add	x0, x29, #0x100
    126c:	3d801007 	str	q7, [x0,#64]
    1270:	b00001e0 	adrp	x0, 3e000 <__exidx_end>
    1274:	910a8000 	add	x0, x0, #0x2a0
    1278:	b9401000 	ldr	w0, [x0,#16]
    127c:	11000401 	add	w1, w0, #0x1
    1280:	b00001e0 	adrp	x0, 3e000 <__exidx_end>
    1284:	910a8000 	add	x0, x0, #0x2a0
    1288:	b9001001 	str	w1, [x0,#16]
    128c:	910643a0 	add	x0, x29, #0x190
    1290:	f9005ba0 	str	x0, [x29,#176]
    1294:	910643a0 	add	x0, x29, #0x190
    1298:	f9005fa0 	str	x0, [x29,#184]
    129c:	910543a0 	add	x0, x29, #0x150
    12a0:	f90063a0 	str	x0, [x29,#192]
    12a4:	128006e0 	mov	w0, #0xffffffc8            	// #-56
    12a8:	b900cba0 	str	w0, [x29,#200]
    12ac:	12800fe0 	mov	w0, #0xffffff80            	// #-128
    12b0:	b900cfa0 	str	w0, [x29,#204]
    12b4:	910043a2 	add	x2, x29, #0x10
    12b8:	9102c3a3 	add	x3, x29, #0xb0
    12bc:	a9400460 	ldp	x0, x1, [x3]
    12c0:	a9000440 	stp	x0, x1, [x2]
    12c4:	a9410460 	ldp	x0, x1, [x3,#16]
    12c8:	a9010440 	stp	x0, x1, [x2,#16]
    12cc:	910043a1 	add	x1, x29, #0x10
    12d0:	910123a0 	add	x0, x29, #0x48
    12d4:	aa0103e2 	mov	x2, x1
    12d8:	f9401fa1 	ldr	x1, [x29,#56]
    12dc:	94008e11 	bl	24b20 <vsprintf>
    12e0:	f0000180 	adrp	x0, 34000 <__hexdig+0x420>
    12e4:	913fa000 	add	x0, x0, #0xfe8
    12e8:	f9400000 	ldr	x0, [x0]
    12ec:	f9400c03 	ldr	x3, [x0,#24]
    12f0:	910123a1 	add	x1, x29, #0x48
    12f4:	90000160 	adrp	x0, 2d000 <__hexnan+0xf8>
    12f8:	912d4000 	add	x0, x0, #0xb50
    12fc:	aa0103e2 	mov	x2, x1
    1300:	aa0003e1 	mov	x1, x0
    1304:	aa0303e0 	mov	x0, x3
    1308:	9400558e 	bl	16940 <fprintf>
    130c:	12800000 	mov	w0, #0xffffffff            	// #-1
    1310:	a8d97bfd 	ldp	x29, x30, [sp],#400
    1314:	d65f03c0 	ret

0000000000001318 <cs_report_device_error>:
    1318:	a9a87bfd 	stp	x29, x30, [sp,#-384]!
    131c:	910003fd 	mov	x29, sp
    1320:	f9001fa0 	str	x0, [x29,#56]
    1324:	f9001ba1 	str	x1, [x29,#48]
    1328:	f900aba2 	str	x2, [x29,#336]
    132c:	f900afa3 	str	x3, [x29,#344]
    1330:	f900b3a4 	str	x4, [x29,#352]
    1334:	f900b7a5 	str	x5, [x29,#360]
    1338:	f900bba6 	str	x6, [x29,#368]
    133c:	f900bfa7 	str	x7, [x29,#376]
    1340:	3d8037a0 	str	q0, [x29,#208]
    1344:	3d803ba1 	str	q1, [x29,#224]
    1348:	3d803fa2 	str	q2, [x29,#240]
    134c:	910403a0 	add	x0, x29, #0x100
    1350:	3d800003 	str	q3, [x0]
    1354:	910403a0 	add	x0, x29, #0x100
    1358:	3d800404 	str	q4, [x0,#16]
    135c:	910403a0 	add	x0, x29, #0x100
    1360:	3d800805 	str	q5, [x0,#32]
    1364:	910403a0 	add	x0, x29, #0x100
    1368:	3d800c06 	str	q6, [x0,#48]
    136c:	910403a0 	add	x0, x29, #0x100
    1370:	3d801007 	str	q7, [x0,#64]
    1374:	f9401fa0 	ldr	x0, [x29,#56]
    1378:	b9404000 	ldr	w0, [x0,#64]
    137c:	11000401 	add	w1, w0, #0x1
    1380:	f9401fa0 	ldr	x0, [x29,#56]
    1384:	b9004001 	str	w1, [x0,#64]
    1388:	b00001e0 	adrp	x0, 3e000 <__exidx_end>
    138c:	910a8000 	add	x0, x0, #0x2a0
    1390:	b9401000 	ldr	w0, [x0,#16]
    1394:	11000401 	add	w1, w0, #0x1
    1398:	b00001e0 	adrp	x0, 3e000 <__exidx_end>
    139c:	910a8000 	add	x0, x0, #0x2a0
    13a0:	b9001001 	str	w1, [x0,#16]
    13a4:	910603a0 	add	x0, x29, #0x180
    13a8:	f9005ba0 	str	x0, [x29,#176]
    13ac:	910603a0 	add	x0, x29, #0x180
    13b0:	f9005fa0 	str	x0, [x29,#184]
    13b4:	910543a0 	add	x0, x29, #0x150
    13b8:	f90063a0 	str	x0, [x29,#192]
    13bc:	128005e0 	mov	w0, #0xffffffd0            	// #-48
    13c0:	b900cba0 	str	w0, [x29,#200]
    13c4:	12800fe0 	mov	w0, #0xffffff80            	// #-128
    13c8:	b900cfa0 	str	w0, [x29,#204]
    13cc:	910043a2 	add	x2, x29, #0x10
    13d0:	9102c3a3 	add	x3, x29, #0xb0
    13d4:	a9400460 	ldp	x0, x1, [x3]
    13d8:	a9000440 	stp	x0, x1, [x2]
    13dc:	a9410460 	ldp	x0, x1, [x3,#16]
    13e0:	a9010440 	stp	x0, x1, [x2,#16]
    13e4:	910043a1 	add	x1, x29, #0x10
    13e8:	910123a0 	add	x0, x29, #0x48
    13ec:	aa0103e2 	mov	x2, x1
    13f0:	f9401ba1 	ldr	x1, [x29,#48]
    13f4:	94008dcb 	bl	24b20 <vsprintf>
    13f8:	f0000180 	adrp	x0, 34000 <__hexdig+0x420>
    13fc:	913fa000 	add	x0, x0, #0xfe8
    1400:	f9400000 	ldr	x0, [x0]
    1404:	f9400c04 	ldr	x4, [x0,#24]
    1408:	f9401fa0 	ldr	x0, [x29,#56]
    140c:	f9400801 	ldr	x1, [x0,#16]
    1410:	910123a2 	add	x2, x29, #0x48
    1414:	90000160 	adrp	x0, 2d000 <__hexnan+0xf8>
    1418:	912da000 	add	x0, x0, #0xb68
    141c:	aa0203e3 	mov	x3, x2
    1420:	aa0103e2 	mov	x2, x1
    1424:	aa0003e1 	mov	x1, x0
    1428:	aa0403e0 	mov	x0, x4
    142c:	94005545 	bl	16940 <fprintf>
    1430:	12800000 	mov	w0, #0xffffffff            	// #-1
    1434:	a8d87bfd 	ldp	x29, x30, [sp],#384
    1438:	d65f03c0 	ret

000000000000143c <cs_get_device_struct>:
    143c:	a9be7bfd 	stp	x29, x30, [sp,#-32]!
    1440:	910003fd 	mov	x29, sp
    1444:	f9000fa0 	str	x0, [x29,#24]
    1448:	f9400fa0 	ldr	x0, [x29,#24]
    144c:	f100001f 	cmp	x0, #0x0
    1450:	54000161 	b.ne	147c <cs_get_device_struct+0x40>
    1454:	90000160 	adrp	x0, 2d000 <__hexnan+0xf8>
    1458:	912e2002 	add	x2, x0, #0xb88
    145c:	90000160 	adrp	x0, 2d000 <__hexnan+0xf8>
    1460:	913d4001 	add	x1, x0, #0xf50
    1464:	90000160 	adrp	x0, 2d000 <__hexnan+0xf8>
    1468:	912e6000 	add	x0, x0, #0xb98
    146c:	aa0203e3 	mov	x3, x2
    1470:	aa0103e2 	mov	x2, x1
    1474:	52801061 	mov	w1, #0x83                  	// #131
    1478:	94005200 	bl	15c78 <__assert_func>
    147c:	f9400fa0 	ldr	x0, [x29,#24]
    1480:	a8c27bfd 	ldp	x29, x30, [sp],#32
    1484:	d65f03c0 	ret

0000000000001488 <cs_device_new>:
    1488:	a9bd7bfd 	stp	x29, x30, [sp,#-48]!
    148c:	910003fd 	mov	x29, sp
    1490:	f9000fa0 	str	x0, [x29,#24]
    1494:	f9000ba1 	str	x1, [x29,#16]
    1498:	d2804500 	mov	x0, #0x228                 	// #552
    149c:	94005abd 	bl	17f90 <malloc>
    14a0:	f90017a0 	str	x0, [x29,#40]
    14a4:	d2804502 	mov	x2, #0x228                 	// #552
    14a8:	52800001 	mov	w1, #0x0                   	// #0
    14ac:	f94017a0 	ldr	x0, [x29,#40]
    14b0:	94005da4 	bl	18b40 <memset>
    14b4:	f94017a0 	ldr	x0, [x29,#40]
    14b8:	f9400fa1 	ldr	x1, [x29,#24]
    14bc:	f9000801 	str	x1, [x0,#16]
    14c0:	f94017a0 	ldr	x0, [x29,#40]
    14c4:	f9400ba1 	ldr	x1, [x29,#16]
    14c8:	f9000c01 	str	x1, [x0,#24]
    14cc:	f94017a0 	ldr	x0, [x29,#40]
    14d0:	12800001 	mov	w1, #0xffffffff            	// #-1
    14d4:	b9003401 	str	w1, [x0,#52]
    14d8:	b00001e0 	adrp	x0, 3e000 <__exidx_end>
    14dc:	910a8000 	add	x0, x0, #0x2a0
    14e0:	b9401801 	ldr	w1, [x0,#24]
    14e4:	f94017a0 	ldr	x0, [x29,#40]
    14e8:	b9003801 	str	w1, [x0,#56]
    14ec:	b00001e0 	adrp	x0, 3e000 <__exidx_end>
    14f0:	910a8000 	add	x0, x0, #0x2a0
    14f4:	39403000 	ldrb	w0, [x0,#12]
    14f8:	93430c00 	sbfx	x0, x0, #3, #1
    14fc:	13001c02 	sxtb	w2, w0
    1500:	f94017a1 	ldr	x1, [x29,#40]
    1504:	3940f020 	ldrb	w0, [x1,#60]
    1508:	331e0040 	bfi	w0, w2, #2, #1
    150c:	3900f020 	strb	w0, [x1,#60]
    1510:	b00001e0 	adrp	x0, 3e000 <__exidx_end>
    1514:	910a8000 	add	x0, x0, #0x2a0
    1518:	f9400001 	ldr	x1, [x0]
    151c:	f94017a0 	ldr	x0, [x29,#40]
    1520:	f9000001 	str	x1, [x0]
    1524:	b00001e0 	adrp	x0, 3e000 <__exidx_end>
    1528:	910a8000 	add	x0, x0, #0x2a0
    152c:	f94017a1 	ldr	x1, [x29,#40]
    1530:	f9000001 	str	x1, [x0]
    1534:	b00001e0 	adrp	x0, 3e000 <__exidx_end>
    1538:	910a8000 	add	x0, x0, #0x2a0
    153c:	b9401400 	ldr	w0, [x0,#20]
    1540:	11000401 	add	w1, w0, #0x1
    1544:	b00001e0 	adrp	x0, 3e000 <__exidx_end>
    1548:	910a8000 	add	x0, x0, #0x2a0
    154c:	b9001401 	str	w1, [x0,#20]
    1550:	f94017a0 	ldr	x0, [x29,#40]
    1554:	a8c37bfd 	ldp	x29, x30, [sp],#48
    1558:	d65f03c0 	ret

000000000000155c <_cs_get_register_address>:
    155c:	a9be7bfd 	stp	x29, x30, [sp,#-32]!
    1560:	910003fd 	mov	x29, sp
    1564:	f9000fa0 	str	x0, [x29,#24]
    1568:	b90017a1 	str	w1, [x29,#20]
    156c:	f9400fa0 	ldr	x0, [x29,#24]
    1570:	f9400c00 	ldr	x0, [x0,#24]
    1574:	f100001f 	cmp	x0, #0x0
    1578:	54000161 	b.ne	15a4 <_cs_get_register_address+0x48>
    157c:	90000160 	adrp	x0, 2d000 <__hexnan+0xf8>
    1580:	912ee002 	add	x2, x0, #0xbb8
    1584:	90000160 	adrp	x0, 2d000 <__hexnan+0xf8>
    1588:	913da001 	add	x1, x0, #0xf68
    158c:	90000160 	adrp	x0, 2d000 <__hexnan+0xf8>
    1590:	912e6000 	add	x0, x0, #0xb98
    1594:	aa0203e3 	mov	x3, x2
    1598:	aa0103e2 	mov	x2, x1
    159c:	528013e1 	mov	w1, #0x9f                  	// #159
    15a0:	940051b6 	bl	15c78 <__assert_func>
    15a4:	b94017a0 	ldr	w0, [x29,#20]
    15a8:	12000400 	and	w0, w0, #0x3
    15ac:	7100001f 	cmp	w0, #0x0
    15b0:	54000160 	b.eq	15dc <_cs_get_register_address+0x80>
    15b4:	90000160 	adrp	x0, 2d000 <__hexnan+0xf8>
    15b8:	912f4002 	add	x2, x0, #0xbd0
    15bc:	90000160 	adrp	x0, 2d000 <__hexnan+0xf8>
    15c0:	913da001 	add	x1, x0, #0xf68
    15c4:	90000160 	adrp	x0, 2d000 <__hexnan+0xf8>
    15c8:	912e6000 	add	x0, x0, #0xb98
    15cc:	aa0203e3 	mov	x3, x2
    15d0:	aa0103e2 	mov	x2, x1
    15d4:	52801401 	mov	w1, #0xa0                  	// #160
    15d8:	940051a8 	bl	15c78 <__assert_func>
    15dc:	b94017a0 	ldr	w0, [x29,#20]
    15e0:	713ffc1f 	cmp	w0, #0xfff
    15e4:	54000169 	b.ls	1610 <_cs_get_register_address+0xb4>
    15e8:	90000160 	adrp	x0, 2d000 <__hexnan+0xf8>
    15ec:	912f8002 	add	x2, x0, #0xbe0
    15f0:	90000160 	adrp	x0, 2d000 <__hexnan+0xf8>
    15f4:	913da001 	add	x1, x0, #0xf68
    15f8:	90000160 	adrp	x0, 2d000 <__hexnan+0xf8>
    15fc:	912e6000 	add	x0, x0, #0xb98
    1600:	aa0203e3 	mov	x3, x2
    1604:	aa0103e2 	mov	x2, x1
    1608:	52801421 	mov	w1, #0xa1                  	// #161
    160c:	9400519b 	bl	15c78 <__assert_func>
    1610:	f9400fa0 	ldr	x0, [x29,#24]
    1614:	f9400c01 	ldr	x1, [x0,#24]
    1618:	b94017a0 	ldr	w0, [x29,#20]
    161c:	8b000020 	add	x0, x1, x0
    1620:	a8c27bfd 	ldp	x29, x30, [sp],#32
    1624:	d65f03c0 	ret

0000000000001628 <_cs_read>:
    1628:	a9be7bfd 	stp	x29, x30, [sp,#-32]!
    162c:	910003fd 	mov	x29, sp
    1630:	f9000fa0 	str	x0, [x29,#24]
    1634:	b90017a1 	str	w1, [x29,#20]
    1638:	f9400fa0 	ldr	x0, [x29,#24]
    163c:	f9400c00 	ldr	x0, [x0,#24]
    1640:	f100001f 	cmp	x0, #0x0
    1644:	54000161 	b.ne	1670 <_cs_read+0x48>
    1648:	90000160 	adrp	x0, 2d000 <__hexnan+0xf8>
    164c:	912ee002 	add	x2, x0, #0xbb8
    1650:	90000160 	adrp	x0, 2d000 <__hexnan+0xf8>
    1654:	913e2001 	add	x1, x0, #0xf88
    1658:	90000160 	adrp	x0, 2d000 <__hexnan+0xf8>
    165c:	912e6000 	add	x0, x0, #0xb98
    1660:	aa0203e3 	mov	x3, x2
    1664:	aa0103e2 	mov	x2, x1
    1668:	52801501 	mov	w1, #0xa8                  	// #168
    166c:	94005183 	bl	15c78 <__assert_func>
    1670:	b94017a0 	ldr	w0, [x29,#20]
    1674:	12000400 	and	w0, w0, #0x3
    1678:	7100001f 	cmp	w0, #0x0
    167c:	54000160 	b.eq	16a8 <_cs_read+0x80>
    1680:	90000160 	adrp	x0, 2d000 <__hexnan+0xf8>
    1684:	912f4002 	add	x2, x0, #0xbd0
    1688:	90000160 	adrp	x0, 2d000 <__hexnan+0xf8>
    168c:	913e2001 	add	x1, x0, #0xf88
    1690:	90000160 	adrp	x0, 2d000 <__hexnan+0xf8>
    1694:	912e6000 	add	x0, x0, #0xb98
    1698:	aa0203e3 	mov	x3, x2
    169c:	aa0103e2 	mov	x2, x1
    16a0:	52801521 	mov	w1, #0xa9                  	// #169
    16a4:	94005175 	bl	15c78 <__assert_func>
    16a8:	b94017a0 	ldr	w0, [x29,#20]
    16ac:	713ffc1f 	cmp	w0, #0xfff
    16b0:	54000169 	b.ls	16dc <_cs_read+0xb4>
    16b4:	90000160 	adrp	x0, 2d000 <__hexnan+0xf8>
    16b8:	912f8002 	add	x2, x0, #0xbe0
    16bc:	90000160 	adrp	x0, 2d000 <__hexnan+0xf8>
    16c0:	913e2001 	add	x1, x0, #0xf88
    16c4:	90000160 	adrp	x0, 2d000 <__hexnan+0xf8>
    16c8:	912e6000 	add	x0, x0, #0xb98
    16cc:	aa0203e3 	mov	x3, x2
    16d0:	aa0103e2 	mov	x2, x1
    16d4:	52801541 	mov	w1, #0xaa                  	// #170
    16d8:	94005168 	bl	15c78 <__assert_func>
    16dc:	f9400fa0 	ldr	x0, [x29,#24]
    16e0:	f9400c01 	ldr	x1, [x0,#24]
    16e4:	b94017a0 	ldr	w0, [x29,#20]
    16e8:	8b000020 	add	x0, x1, x0
    16ec:	b9400000 	ldr	w0, [x0]
    16f0:	a8c27bfd 	ldp	x29, x30, [sp],#32
    16f4:	d65f03c0 	ret

00000000000016f8 <_cs_read64>:
    16f8:	a9be7bfd 	stp	x29, x30, [sp,#-32]!
    16fc:	910003fd 	mov	x29, sp
    1700:	f9000fa0 	str	x0, [x29,#24]
    1704:	b90017a1 	str	w1, [x29,#20]
    1708:	f9400fa0 	ldr	x0, [x29,#24]
    170c:	f9400c00 	ldr	x0, [x0,#24]
    1710:	f100001f 	cmp	x0, #0x0
    1714:	54000161 	b.ne	1740 <_cs_read64+0x48>
    1718:	90000160 	adrp	x0, 2d000 <__hexnan+0xf8>
    171c:	912ee002 	add	x2, x0, #0xbb8
    1720:	90000160 	adrp	x0, 2d000 <__hexnan+0xf8>
    1724:	913e6001 	add	x1, x0, #0xf98
    1728:	90000160 	adrp	x0, 2d000 <__hexnan+0xf8>
    172c:	912e6000 	add	x0, x0, #0xb98
    1730:	aa0203e3 	mov	x3, x2
    1734:	aa0103e2 	mov	x2, x1
    1738:	52801601 	mov	w1, #0xb0                  	// #176
    173c:	9400514f 	bl	15c78 <__assert_func>
    1740:	b94017a0 	ldr	w0, [x29,#20]
    1744:	12000800 	and	w0, w0, #0x7
    1748:	7100001f 	cmp	w0, #0x0
    174c:	54000160 	b.eq	1778 <_cs_read64+0x80>
    1750:	90000160 	adrp	x0, 2d000 <__hexnan+0xf8>
    1754:	912fc002 	add	x2, x0, #0xbf0
    1758:	90000160 	adrp	x0, 2d000 <__hexnan+0xf8>
    175c:	913e6001 	add	x1, x0, #0xf98
    1760:	90000160 	adrp	x0, 2d000 <__hexnan+0xf8>
    1764:	912e6000 	add	x0, x0, #0xb98
    1768:	aa0203e3 	mov	x3, x2
    176c:	aa0103e2 	mov	x2, x1
    1770:	52801621 	mov	w1, #0xb1                  	// #177
    1774:	94005141 	bl	15c78 <__assert_func>
    1778:	b94017a0 	ldr	w0, [x29,#20]
    177c:	713ffc1f 	cmp	w0, #0xfff
    1780:	54000169 	b.ls	17ac <_cs_read64+0xb4>
    1784:	90000160 	adrp	x0, 2d000 <__hexnan+0xf8>
    1788:	912f8002 	add	x2, x0, #0xbe0
    178c:	90000160 	adrp	x0, 2d000 <__hexnan+0xf8>
    1790:	913e6001 	add	x1, x0, #0xf98
    1794:	90000160 	adrp	x0, 2d000 <__hexnan+0xf8>
    1798:	912e6000 	add	x0, x0, #0xb98
    179c:	aa0203e3 	mov	x3, x2
    17a0:	aa0103e2 	mov	x2, x1
    17a4:	52801641 	mov	w1, #0xb2                  	// #178
    17a8:	94005134 	bl	15c78 <__assert_func>
    17ac:	f9400fa0 	ldr	x0, [x29,#24]
    17b0:	f9400c01 	ldr	x1, [x0,#24]
    17b4:	b94017a0 	ldr	w0, [x29,#20]
    17b8:	8b000020 	add	x0, x1, x0
    17bc:	f9400000 	ldr	x0, [x0]
    17c0:	a8c27bfd 	ldp	x29, x30, [sp],#32
    17c4:	d65f03c0 	ret

00000000000017c8 <_cs_write_wo>:
    17c8:	a9be7bfd 	stp	x29, x30, [sp,#-32]!
    17cc:	910003fd 	mov	x29, sp
    17d0:	f9000fa0 	str	x0, [x29,#24]
    17d4:	b90017a1 	str	w1, [x29,#20]
    17d8:	b90013a2 	str	w2, [x29,#16]
    17dc:	f9400fa0 	ldr	x0, [x29,#24]
    17e0:	f9400c00 	ldr	x0, [x0,#24]
    17e4:	f100001f 	cmp	x0, #0x0
    17e8:	54000161 	b.ne	1814 <_cs_write_wo+0x4c>
    17ec:	90000160 	adrp	x0, 2d000 <__hexnan+0xf8>
    17f0:	912ee002 	add	x2, x0, #0xbb8
    17f4:	90000160 	adrp	x0, 2d000 <__hexnan+0xf8>
    17f8:	913ea001 	add	x1, x0, #0xfa8
    17fc:	90000160 	adrp	x0, 2d000 <__hexnan+0xf8>
    1800:	912e6000 	add	x0, x0, #0xb98
    1804:	aa0203e3 	mov	x3, x2
    1808:	aa0103e2 	mov	x2, x1
    180c:	52801821 	mov	w1, #0xc1                  	// #193
    1810:	9400511a 	bl	15c78 <__assert_func>
    1814:	b94017a0 	ldr	w0, [x29,#20]
    1818:	12000400 	and	w0, w0, #0x3
    181c:	7100001f 	cmp	w0, #0x0
    1820:	54000160 	b.eq	184c <_cs_write_wo+0x84>
    1824:	90000160 	adrp	x0, 2d000 <__hexnan+0xf8>
    1828:	912f4002 	add	x2, x0, #0xbd0
    182c:	90000160 	adrp	x0, 2d000 <__hexnan+0xf8>
    1830:	913ea001 	add	x1, x0, #0xfa8
    1834:	90000160 	adrp	x0, 2d000 <__hexnan+0xf8>
    1838:	912e6000 	add	x0, x0, #0xb98
    183c:	aa0203e3 	mov	x3, x2
    1840:	aa0103e2 	mov	x2, x1
    1844:	52801841 	mov	w1, #0xc2                  	// #194
    1848:	9400510c 	bl	15c78 <__assert_func>
    184c:	b94017a0 	ldr	w0, [x29,#20]
    1850:	713ffc1f 	cmp	w0, #0xfff
    1854:	54000169 	b.ls	1880 <_cs_write_wo+0xb8>
    1858:	90000160 	adrp	x0, 2d000 <__hexnan+0xf8>
    185c:	912f8002 	add	x2, x0, #0xbe0
    1860:	90000160 	adrp	x0, 2d000 <__hexnan+0xf8>
    1864:	913ea001 	add	x1, x0, #0xfa8
    1868:	90000160 	adrp	x0, 2d000 <__hexnan+0xf8>
    186c:	912e6000 	add	x0, x0, #0xb98
    1870:	aa0203e3 	mov	x3, x2
    1874:	aa0103e2 	mov	x2, x1
    1878:	52801861 	mov	w1, #0xc3                  	// #195
    187c:	940050ff 	bl	15c78 <__assert_func>
    1880:	f9400fa0 	ldr	x0, [x29,#24]
    1884:	f9400c01 	ldr	x1, [x0,#24]
    1888:	b94017a0 	ldr	w0, [x29,#20]
    188c:	8b000020 	add	x0, x1, x0
    1890:	b94013a1 	ldr	w1, [x29,#16]
    1894:	b9000001 	str	w1, [x0]
    1898:	52800000 	mov	w0, #0x0                   	// #0
    189c:	a8c27bfd 	ldp	x29, x30, [sp],#32
    18a0:	d65f03c0 	ret

00000000000018a4 <_cs_write64_wo>:
    18a4:	a9bd7bfd 	stp	x29, x30, [sp,#-48]!
    18a8:	910003fd 	mov	x29, sp
    18ac:	f90017a0 	str	x0, [x29,#40]
    18b0:	b90027a1 	str	w1, [x29,#36]
    18b4:	f9000fa2 	str	x2, [x29,#24]
    18b8:	f94017a0 	ldr	x0, [x29,#40]
    18bc:	f9400c00 	ldr	x0, [x0,#24]
    18c0:	f100001f 	cmp	x0, #0x0
    18c4:	54000161 	b.ne	18f0 <_cs_write64_wo+0x4c>
    18c8:	90000160 	adrp	x0, 2d000 <__hexnan+0xf8>
    18cc:	912ee002 	add	x2, x0, #0xbb8
    18d0:	90000160 	adrp	x0, 2d000 <__hexnan+0xf8>
    18d4:	913ee001 	add	x1, x0, #0xfb8
    18d8:	90000160 	adrp	x0, 2d000 <__hexnan+0xf8>
    18dc:	912e6000 	add	x0, x0, #0xb98
    18e0:	aa0203e3 	mov	x3, x2
    18e4:	aa0103e2 	mov	x2, x1
    18e8:	52801961 	mov	w1, #0xcb                  	// #203
    18ec:	940050e3 	bl	15c78 <__assert_func>
    18f0:	b94027a0 	ldr	w0, [x29,#36]
    18f4:	12000800 	and	w0, w0, #0x7
    18f8:	7100001f 	cmp	w0, #0x0
    18fc:	54000160 	b.eq	1928 <_cs_write64_wo+0x84>
    1900:	90000160 	adrp	x0, 2d000 <__hexnan+0xf8>
    1904:	912fc002 	add	x2, x0, #0xbf0
    1908:	90000160 	adrp	x0, 2d000 <__hexnan+0xf8>
    190c:	913ee001 	add	x1, x0, #0xfb8
    1910:	90000160 	adrp	x0, 2d000 <__hexnan+0xf8>
    1914:	912e6000 	add	x0, x0, #0xb98
    1918:	aa0203e3 	mov	x3, x2
    191c:	aa0103e2 	mov	x2, x1
    1920:	52801981 	mov	w1, #0xcc                  	// #204
    1924:	940050d5 	bl	15c78 <__assert_func>
    1928:	b94027a0 	ldr	w0, [x29,#36]
    192c:	713ffc1f 	cmp	w0, #0xfff
    1930:	54000169 	b.ls	195c <_cs_write64_wo+0xb8>
    1934:	90000160 	adrp	x0, 2d000 <__hexnan+0xf8>
    1938:	912f8002 	add	x2, x0, #0xbe0
    193c:	90000160 	adrp	x0, 2d000 <__hexnan+0xf8>
    1940:	913ee001 	add	x1, x0, #0xfb8
    1944:	90000160 	adrp	x0, 2d000 <__hexnan+0xf8>
    1948:	912e6000 	add	x0, x0, #0xb98
    194c:	aa0203e3 	mov	x3, x2
    1950:	aa0103e2 	mov	x2, x1
    1954:	528019a1 	mov	w1, #0xcd                  	// #205
    1958:	940050c8 	bl	15c78 <__assert_func>
    195c:	f94017a0 	ldr	x0, [x29,#40]
    1960:	f9400c01 	ldr	x1, [x0,#24]
    1964:	b94027a0 	ldr	w0, [x29,#36]
    1968:	8b000020 	add	x0, x1, x0
    196c:	f9400fa1 	ldr	x1, [x29,#24]
    1970:	f9000001 	str	x1, [x0]
    1974:	52800000 	mov	w0, #0x0                   	// #0
    1978:	a8c37bfd 	ldp	x29, x30, [sp],#48
    197c:	d65f03c0 	ret

0000000000001980 <_cs_write_traced>:
    1980:	a9bc7bfd 	stp	x29, x30, [sp,#-64]!
    1984:	910003fd 	mov	x29, sp
    1988:	f90017a0 	str	x0, [x29,#40]
    198c:	b90027a1 	str	w1, [x29,#36]
    1990:	b90023a2 	str	w2, [x29,#32]
    1994:	f9000fa3 	str	x3, [x29,#24]
    1998:	f94017a0 	ldr	x0, [x29,#40]
    199c:	3940f000 	ldrb	w0, [x0,#60]
    19a0:	121e0000 	and	w0, w0, #0x4
    19a4:	12001c00 	and	w0, w0, #0xff
    19a8:	7100001f 	cmp	w0, #0x0
    19ac:	54000101 	b.ne	19cc <_cs_write_traced+0x4c>
    19b0:	b00001e0 	adrp	x0, 3e000 <__exidx_end>
    19b4:	910a8000 	add	x0, x0, #0x2a0
    19b8:	39403000 	ldrb	w0, [x0,#12]
    19bc:	121d0000 	and	w0, w0, #0x8
    19c0:	12001c00 	and	w0, w0, #0xff
    19c4:	7100001f 	cmp	w0, #0x0
    19c8:	54000120 	b.eq	19ec <_cs_write_traced+0x6c>
    19cc:	f94017a0 	ldr	x0, [x29,#40]
    19d0:	f9400801 	ldr	x1, [x0,#16]
    19d4:	90000160 	adrp	x0, 2d000 <__hexnan+0xf8>
    19d8:	91300000 	add	x0, x0, #0xc00
    19dc:	b94023a4 	ldr	w4, [x29,#32]
    19e0:	f9400fa3 	ldr	x3, [x29,#24]
    19e4:	b94027a2 	ldr	w2, [x29,#36]
    19e8:	97fffd54 	bl	f38 <_diagf>
    19ec:	b00001e0 	adrp	x0, 3e000 <__exidx_end>
    19f0:	910a8000 	add	x0, x0, #0x2a0
    19f4:	39403000 	ldrb	w0, [x0,#12]
    19f8:	121c0000 	and	w0, w0, #0x10
    19fc:	12001c00 	and	w0, w0, #0xff
    1a00:	7100001f 	cmp	w0, #0x0
    1a04:	54000220 	b.eq	1a48 <_cs_write_traced+0xc8>
    1a08:	b94027a0 	ldr	w0, [x29,#36]
    1a0c:	713ec01f 	cmp	w0, #0xfb0
    1a10:	540001c0 	b.eq	1a48 <_cs_write_traced+0xc8>
    1a14:	f94017a0 	ldr	x0, [x29,#40]
    1a18:	3940f000 	ldrb	w0, [x0,#60]
    1a1c:	12000000 	and	w0, w0, #0x1
    1a20:	12001c00 	and	w0, w0, #0xff
    1a24:	7100001f 	cmp	w0, #0x0
    1a28:	54000101 	b.ne	1a48 <_cs_write_traced+0xc8>
    1a2c:	f94017a0 	ldr	x0, [x29,#40]
    1a30:	f9400801 	ldr	x1, [x0,#16]
    1a34:	90000160 	adrp	x0, 2d000 <__hexnan+0xf8>
    1a38:	91308000 	add	x0, x0, #0xc20
    1a3c:	f9400fa3 	ldr	x3, [x29,#24]
    1a40:	b94027a2 	ldr	w2, [x29,#36]
    1a44:	97fffd3d 	bl	f38 <_diagf>
    1a48:	b94023a2 	ldr	w2, [x29,#32]
    1a4c:	b94027a1 	ldr	w1, [x29,#36]
    1a50:	f94017a0 	ldr	x0, [x29,#40]
    1a54:	97ffff5d 	bl	17c8 <_cs_write_wo>
    1a58:	b00001e0 	adrp	x0, 3e000 <__exidx_end>
    1a5c:	910a8000 	add	x0, x0, #0x2a0
    1a60:	39403000 	ldrb	w0, [x0,#12]
    1a64:	121c0000 	and	w0, w0, #0x10
    1a68:	12001c00 	and	w0, w0, #0xff
    1a6c:	7100001f 	cmp	w0, #0x0
    1a70:	54000280 	b.eq	1ac0 <_cs_write_traced+0x140>
    1a74:	f94017a0 	ldr	x0, [x29,#40]
    1a78:	f9400c01 	ldr	x1, [x0,#24]
    1a7c:	b94027a0 	ldr	w0, [x29,#36]
    1a80:	8b000020 	add	x0, x1, x0
    1a84:	b9400000 	ldr	w0, [x0]
    1a88:	b9003fa0 	str	w0, [x29,#60]
    1a8c:	b9403fa1 	ldr	w1, [x29,#60]
    1a90:	b94023a0 	ldr	w0, [x29,#32]
    1a94:	6b00003f 	cmp	w1, w0
    1a98:	54000140 	b.eq	1ac0 <_cs_write_traced+0x140>
    1a9c:	f94017a0 	ldr	x0, [x29,#40]
    1aa0:	f9400801 	ldr	x1, [x0,#16]
    1aa4:	90000160 	adrp	x0, 2d000 <__hexnan+0xf8>
    1aa8:	91312000 	add	x0, x0, #0xc48
    1aac:	b9403fa5 	ldr	w5, [x29,#60]
    1ab0:	b94023a4 	ldr	w4, [x29,#32]
    1ab4:	f9400fa3 	ldr	x3, [x29,#24]
    1ab8:	b94027a2 	ldr	w2, [x29,#36]
    1abc:	97fffd1f 	bl	f38 <_diagf>
    1ac0:	d5033fbf 	dmb	sy
    1ac4:	52800000 	mov	w0, #0x0                   	// #0
    1ac8:	a8c47bfd 	ldp	x29, x30, [sp],#64
    1acc:	d65f03c0 	ret

0000000000001ad0 <_cs_write64_traced>:
    1ad0:	a9bc7bfd 	stp	x29, x30, [sp,#-64]!
    1ad4:	910003fd 	mov	x29, sp
    1ad8:	f90017a0 	str	x0, [x29,#40]
    1adc:	b90027a1 	str	w1, [x29,#36]
    1ae0:	f9000fa2 	str	x2, [x29,#24]
    1ae4:	f9000ba3 	str	x3, [x29,#16]
    1ae8:	f94017a0 	ldr	x0, [x29,#40]
    1aec:	3940f000 	ldrb	w0, [x0,#60]
    1af0:	121e0000 	and	w0, w0, #0x4
    1af4:	12001c00 	and	w0, w0, #0xff
    1af8:	7100001f 	cmp	w0, #0x0
    1afc:	54000101 	b.ne	1b1c <_cs_write64_traced+0x4c>
    1b00:	b00001e0 	adrp	x0, 3e000 <__exidx_end>
    1b04:	910a8000 	add	x0, x0, #0x2a0
    1b08:	39403000 	ldrb	w0, [x0,#12]
    1b0c:	121d0000 	and	w0, w0, #0x8
    1b10:	12001c00 	and	w0, w0, #0xff
    1b14:	7100001f 	cmp	w0, #0x0
    1b18:	54000120 	b.eq	1b3c <_cs_write64_traced+0x6c>
    1b1c:	f94017a0 	ldr	x0, [x29,#40]
    1b20:	f9400801 	ldr	x1, [x0,#16]
    1b24:	90000160 	adrp	x0, 2d000 <__hexnan+0xf8>
    1b28:	9131e000 	add	x0, x0, #0xc78
    1b2c:	f9400fa4 	ldr	x4, [x29,#24]
    1b30:	f9400ba3 	ldr	x3, [x29,#16]
    1b34:	b94027a2 	ldr	w2, [x29,#36]
    1b38:	97fffd00 	bl	f38 <_diagf>
    1b3c:	b00001e0 	adrp	x0, 3e000 <__exidx_end>
    1b40:	910a8000 	add	x0, x0, #0x2a0
    1b44:	39403000 	ldrb	w0, [x0,#12]
    1b48:	121c0000 	and	w0, w0, #0x10
    1b4c:	12001c00 	and	w0, w0, #0xff
    1b50:	7100001f 	cmp	w0, #0x0
    1b54:	54000220 	b.eq	1b98 <_cs_write64_traced+0xc8>
    1b58:	b94027a0 	ldr	w0, [x29,#36]
    1b5c:	713ec01f 	cmp	w0, #0xfb0
    1b60:	540001c0 	b.eq	1b98 <_cs_write64_traced+0xc8>
    1b64:	f94017a0 	ldr	x0, [x29,#40]
    1b68:	3940f000 	ldrb	w0, [x0,#60]
    1b6c:	12000000 	and	w0, w0, #0x1
    1b70:	12001c00 	and	w0, w0, #0xff
    1b74:	7100001f 	cmp	w0, #0x0
    1b78:	54000101 	b.ne	1b98 <_cs_write64_traced+0xc8>
    1b7c:	f94017a0 	ldr	x0, [x29,#40]
    1b80:	f9400801 	ldr	x1, [x0,#16]
    1b84:	90000160 	adrp	x0, 2d000 <__hexnan+0xf8>
    1b88:	91308000 	add	x0, x0, #0xc20
    1b8c:	f9400ba3 	ldr	x3, [x29,#16]
    1b90:	b94027a2 	ldr	w2, [x29,#36]
    1b94:	97fffce9 	bl	f38 <_diagf>
    1b98:	f9400fa2 	ldr	x2, [x29,#24]
    1b9c:	b94027a1 	ldr	w1, [x29,#36]
    1ba0:	f94017a0 	ldr	x0, [x29,#40]
    1ba4:	97ffff40 	bl	18a4 <_cs_write64_wo>
    1ba8:	b00001e0 	adrp	x0, 3e000 <__exidx_end>
    1bac:	910a8000 	add	x0, x0, #0x2a0
    1bb0:	39403000 	ldrb	w0, [x0,#12]
    1bb4:	121c0000 	and	w0, w0, #0x10
    1bb8:	12001c00 	and	w0, w0, #0xff
    1bbc:	7100001f 	cmp	w0, #0x0
    1bc0:	54000280 	b.eq	1c10 <_cs_write64_traced+0x140>
    1bc4:	f94017a0 	ldr	x0, [x29,#40]
    1bc8:	f9400c01 	ldr	x1, [x0,#24]
    1bcc:	b94027a0 	ldr	w0, [x29,#36]
    1bd0:	8b000020 	add	x0, x1, x0
    1bd4:	f9400000 	ldr	x0, [x0]
    1bd8:	f9001fa0 	str	x0, [x29,#56]
    1bdc:	f9401fa1 	ldr	x1, [x29,#56]
    1be0:	f9400fa0 	ldr	x0, [x29,#24]
    1be4:	eb00003f 	cmp	x1, x0
    1be8:	54000140 	b.eq	1c10 <_cs_write64_traced+0x140>
    1bec:	f94017a0 	ldr	x0, [x29,#40]
    1bf0:	f9400801 	ldr	x1, [x0,#16]
    1bf4:	90000160 	adrp	x0, 2d000 <__hexnan+0xf8>
    1bf8:	91328000 	add	x0, x0, #0xca0
    1bfc:	f9401fa5 	ldr	x5, [x29,#56]
    1c00:	f9400fa4 	ldr	x4, [x29,#24]
    1c04:	f9400ba3 	ldr	x3, [x29,#16]
    1c08:	b94027a2 	ldr	w2, [x29,#36]
    1c0c:	97fffccb 	bl	f38 <_diagf>
    1c10:	d5033fbf 	dmb	sy
    1c14:	52800000 	mov	w0, #0x0                   	// #0
    1c18:	a8c47bfd 	ldp	x29, x30, [sp],#64
    1c1c:	d65f03c0 	ret

0000000000001c20 <_cs_set_mask>:
    1c20:	a9bc7bfd 	stp	x29, x30, [sp,#-64]!
    1c24:	910003fd 	mov	x29, sp
    1c28:	f90017a0 	str	x0, [x29,#40]
    1c2c:	b90027a1 	str	w1, [x29,#36]
    1c30:	b90023a2 	str	w2, [x29,#32]
    1c34:	b9001fa3 	str	w3, [x29,#28]
    1c38:	b94027a1 	ldr	w1, [x29,#36]
    1c3c:	f94017a0 	ldr	x0, [x29,#40]
    1c40:	97fffe7a 	bl	1628 <_cs_read>
    1c44:	b9003fa0 	str	w0, [x29,#60]
    1c48:	b94023a0 	ldr	w0, [x29,#32]
    1c4c:	2a2003e1 	mvn	w1, w0
    1c50:	b9401fa0 	ldr	w0, [x29,#28]
    1c54:	0a000020 	and	w0, w1, w0
    1c58:	7100001f 	cmp	w0, #0x0
    1c5c:	54000160 	b.eq	1c88 <_cs_set_mask+0x68>
    1c60:	90000160 	adrp	x0, 2d000 <__hexnan+0xf8>
    1c64:	91334002 	add	x2, x0, #0xcd0
    1c68:	90000160 	adrp	x0, 2d000 <__hexnan+0xf8>
    1c6c:	913f2001 	add	x1, x0, #0xfc8
    1c70:	90000160 	adrp	x0, 2d000 <__hexnan+0xf8>
    1c74:	912e6000 	add	x0, x0, #0xb98
    1c78:	aa0203e3 	mov	x3, x2
    1c7c:	aa0103e2 	mov	x2, x1
    1c80:	52802261 	mov	w1, #0x113                 	// #275
    1c84:	94004ffd 	bl	15c78 <__assert_func>
    1c88:	b94023a0 	ldr	w0, [x29,#32]
    1c8c:	2a2003e1 	mvn	w1, w0
    1c90:	b9403fa0 	ldr	w0, [x29,#60]
    1c94:	0a000021 	and	w1, w1, w0
    1c98:	b9401fa0 	ldr	w0, [x29,#28]
    1c9c:	2a000020 	orr	w0, w1, w0
    1ca0:	b9003ba0 	str	w0, [x29,#56]
    1ca4:	b00001e0 	adrp	x0, 3e000 <__exidx_end>
    1ca8:	910a8000 	add	x0, x0, #0x2a0
    1cac:	39403000 	ldrb	w0, [x0,#12]
    1cb0:	121e0000 	and	w0, w0, #0x4
    1cb4:	12001c00 	and	w0, w0, #0xff
    1cb8:	7100001f 	cmp	w0, #0x0
    1cbc:	540000a1 	b.ne	1cd0 <_cs_set_mask+0xb0>
    1cc0:	b9403ba1 	ldr	w1, [x29,#56]
    1cc4:	b9403fa0 	ldr	w0, [x29,#60]
    1cc8:	6b00003f 	cmp	w1, w0
    1ccc:	54000120 	b.eq	1cf0 <_cs_set_mask+0xd0>
    1cd0:	90000160 	adrp	x0, 2d000 <__hexnan+0xf8>
    1cd4:	9133a000 	add	x0, x0, #0xce8
    1cd8:	aa0003e3 	mov	x3, x0
    1cdc:	b9403ba2 	ldr	w2, [x29,#56]
    1ce0:	b94027a1 	ldr	w1, [x29,#36]
    1ce4:	f94017a0 	ldr	x0, [x29,#40]
    1ce8:	97ffff26 	bl	1980 <_cs_write_traced>
    1cec:	14000017 	b	1d48 <_cs_set_mask+0x128>
    1cf0:	f94017a0 	ldr	x0, [x29,#40]
    1cf4:	3940f000 	ldrb	w0, [x0,#60]
    1cf8:	121e0000 	and	w0, w0, #0x4
    1cfc:	12001c00 	and	w0, w0, #0xff
    1d00:	7100001f 	cmp	w0, #0x0
    1d04:	54000101 	b.ne	1d24 <_cs_set_mask+0x104>
    1d08:	b00001e0 	adrp	x0, 3e000 <__exidx_end>
    1d0c:	910a8000 	add	x0, x0, #0x2a0
    1d10:	39403000 	ldrb	w0, [x0,#12]
    1d14:	121d0000 	and	w0, w0, #0x8
    1d18:	12001c00 	and	w0, w0, #0xff
    1d1c:	7100001f 	cmp	w0, #0x0
    1d20:	54000120 	b.eq	1d44 <_cs_set_mask+0x124>
    1d24:	f94017a0 	ldr	x0, [x29,#40]
    1d28:	f9400801 	ldr	x1, [x0,#16]
    1d2c:	90000160 	adrp	x0, 2d000 <__hexnan+0xf8>
    1d30:	9133c000 	add	x0, x0, #0xcf0
    1d34:	b9401fa4 	ldr	w4, [x29,#28]
    1d38:	b94023a3 	ldr	w3, [x29,#32]
    1d3c:	b94027a2 	ldr	w2, [x29,#36]
    1d40:	97fffc7e 	bl	f38 <_diagf>
    1d44:	52800000 	mov	w0, #0x0                   	// #0
    1d48:	a8c47bfd 	ldp	x29, x30, [sp],#64
    1d4c:	d65f03c0 	ret

0000000000001d50 <_cs_write_mask>:
    1d50:	a9bc7bfd 	stp	x29, x30, [sp,#-64]!
    1d54:	910003fd 	mov	x29, sp
    1d58:	f90017a0 	str	x0, [x29,#40]
    1d5c:	b90027a1 	str	w1, [x29,#36]
    1d60:	b90023a2 	str	w2, [x29,#32]
    1d64:	b9001fa3 	str	w3, [x29,#28]
    1d68:	b94027a1 	ldr	w1, [x29,#36]
    1d6c:	f94017a0 	ldr	x0, [x29,#40]
    1d70:	97fffe2e 	bl	1628 <_cs_read>
    1d74:	b9003fa0 	str	w0, [x29,#60]
    1d78:	b9403fa1 	ldr	w1, [x29,#60]
    1d7c:	b9401fa0 	ldr	w0, [x29,#28]
    1d80:	4a000021 	eor	w1, w1, w0
    1d84:	b94023a0 	ldr	w0, [x29,#32]
    1d88:	0a000021 	and	w1, w1, w0
    1d8c:	b9403fa0 	ldr	w0, [x29,#60]
    1d90:	4a000020 	eor	w0, w1, w0
    1d94:	b9003ba0 	str	w0, [x29,#56]
    1d98:	90000160 	adrp	x0, 2d000 <__hexnan+0xf8>
    1d9c:	9133a000 	add	x0, x0, #0xce8
    1da0:	aa0003e3 	mov	x3, x0
    1da4:	b9403ba2 	ldr	w2, [x29,#56]
    1da8:	b94027a1 	ldr	w1, [x29,#36]
    1dac:	f94017a0 	ldr	x0, [x29,#40]
    1db0:	97fffef4 	bl	1980 <_cs_write_traced>
    1db4:	a8c47bfd 	ldp	x29, x30, [sp],#64
    1db8:	d65f03c0 	ret

0000000000001dbc <_cs_set_bit>:
    1dbc:	a9bd7bfd 	stp	x29, x30, [sp,#-48]!
    1dc0:	910003fd 	mov	x29, sp
    1dc4:	f90017a0 	str	x0, [x29,#40]
    1dc8:	b90027a1 	str	w1, [x29,#36]
    1dcc:	b90023a2 	str	w2, [x29,#32]
    1dd0:	b9001fa3 	str	w3, [x29,#28]
    1dd4:	b9401fa0 	ldr	w0, [x29,#28]
    1dd8:	7100001f 	cmp	w0, #0x0
    1ddc:	54000060 	b.eq	1de8 <_cs_set_bit+0x2c>
    1de0:	b94023a0 	ldr	w0, [x29,#32]
    1de4:	14000002 	b	1dec <_cs_set_bit+0x30>
    1de8:	52800000 	mov	w0, #0x0                   	// #0
    1dec:	2a0003e3 	mov	w3, w0
    1df0:	b94023a2 	ldr	w2, [x29,#32]
    1df4:	b94027a1 	ldr	w1, [x29,#36]
    1df8:	f94017a0 	ldr	x0, [x29,#40]
    1dfc:	97ffff89 	bl	1c20 <_cs_set_mask>
    1e00:	a8c37bfd 	ldp	x29, x30, [sp],#48
    1e04:	d65f03c0 	ret

0000000000001e08 <_cs_set>:
    1e08:	a9be7bfd 	stp	x29, x30, [sp,#-32]!
    1e0c:	910003fd 	mov	x29, sp
    1e10:	f9000fa0 	str	x0, [x29,#24]
    1e14:	b90017a1 	str	w1, [x29,#20]
    1e18:	b90013a2 	str	w2, [x29,#16]
    1e1c:	b94013a3 	ldr	w3, [x29,#16]
    1e20:	b94013a2 	ldr	w2, [x29,#16]
    1e24:	b94017a1 	ldr	w1, [x29,#20]
    1e28:	f9400fa0 	ldr	x0, [x29,#24]
    1e2c:	97ffff7d 	bl	1c20 <_cs_set_mask>
    1e30:	a8c27bfd 	ldp	x29, x30, [sp],#32
    1e34:	d65f03c0 	ret

0000000000001e38 <_cs_set_wo>:
    1e38:	a9be7bfd 	stp	x29, x30, [sp,#-32]!
    1e3c:	910003fd 	mov	x29, sp
    1e40:	f9000fa0 	str	x0, [x29,#24]
    1e44:	b90017a1 	str	w1, [x29,#20]
    1e48:	b90013a2 	str	w2, [x29,#16]
    1e4c:	b94017a1 	ldr	w1, [x29,#20]
    1e50:	f9400fa0 	ldr	x0, [x29,#24]
    1e54:	97fffdf5 	bl	1628 <_cs_read>
    1e58:	2a0003e1 	mov	w1, w0
    1e5c:	b94013a0 	ldr	w0, [x29,#16]
    1e60:	2a000020 	orr	w0, w1, w0
    1e64:	2a0003e2 	mov	w2, w0
    1e68:	b94017a1 	ldr	w1, [x29,#20]
    1e6c:	f9400fa0 	ldr	x0, [x29,#24]
    1e70:	97fffe56 	bl	17c8 <_cs_write_wo>
    1e74:	a8c27bfd 	ldp	x29, x30, [sp],#32
    1e78:	d65f03c0 	ret

0000000000001e7c <_cs_clear>:
    1e7c:	a9be7bfd 	stp	x29, x30, [sp,#-32]!
    1e80:	910003fd 	mov	x29, sp
    1e84:	f9000fa0 	str	x0, [x29,#24]
    1e88:	b90017a1 	str	w1, [x29,#20]
    1e8c:	b90013a2 	str	w2, [x29,#16]
    1e90:	52800003 	mov	w3, #0x0                   	// #0
    1e94:	b94013a2 	ldr	w2, [x29,#16]
    1e98:	b94017a1 	ldr	w1, [x29,#20]
    1e9c:	f9400fa0 	ldr	x0, [x29,#24]
    1ea0:	97ffff60 	bl	1c20 <_cs_set_mask>
    1ea4:	a8c27bfd 	ldp	x29, x30, [sp],#32
    1ea8:	d65f03c0 	ret

0000000000001eac <_cs_isset>:
    1eac:	a9be7bfd 	stp	x29, x30, [sp,#-32]!
    1eb0:	910003fd 	mov	x29, sp
    1eb4:	f9000fa0 	str	x0, [x29,#24]
    1eb8:	b90017a1 	str	w1, [x29,#20]
    1ebc:	b90013a2 	str	w2, [x29,#16]
    1ec0:	b94017a1 	ldr	w1, [x29,#20]
    1ec4:	f9400fa0 	ldr	x0, [x29,#24]
    1ec8:	97fffdd8 	bl	1628 <_cs_read>
    1ecc:	2a0003e1 	mov	w1, w0
    1ed0:	b94013a0 	ldr	w0, [x29,#16]
    1ed4:	0a000021 	and	w1, w1, w0
    1ed8:	b94013a0 	ldr	w0, [x29,#16]
    1edc:	6b00003f 	cmp	w1, w0
    1ee0:	1a9f17e0 	cset	w0, eq
    1ee4:	12001c00 	and	w0, w0, #0xff
    1ee8:	a8c27bfd 	ldp	x29, x30, [sp],#32
    1eec:	d65f03c0 	ret

0000000000001ef0 <_cs_wait>:
    1ef0:	a9bd7bfd 	stp	x29, x30, [sp,#-48]!
    1ef4:	910003fd 	mov	x29, sp
    1ef8:	f9000fa0 	str	x0, [x29,#24]
    1efc:	b90017a1 	str	w1, [x29,#20]
    1f00:	b90013a2 	str	w2, [x29,#16]
    1f04:	b9002fbf 	str	wzr, [x29,#44]
    1f08:	14000021 	b	1f8c <_cs_wait+0x9c>
    1f0c:	b94013a2 	ldr	w2, [x29,#16]
    1f10:	b94017a1 	ldr	w1, [x29,#20]
    1f14:	f9400fa0 	ldr	x0, [x29,#24]
    1f18:	97ffffe5 	bl	1eac <_cs_isset>
    1f1c:	7100001f 	cmp	w0, #0x0
    1f20:	54000300 	b.eq	1f80 <_cs_wait+0x90>
    1f24:	f9400fa0 	ldr	x0, [x29,#24]
    1f28:	3940f000 	ldrb	w0, [x0,#60]
    1f2c:	121e0000 	and	w0, w0, #0x4
    1f30:	12001c00 	and	w0, w0, #0xff
    1f34:	7100001f 	cmp	w0, #0x0
    1f38:	54000101 	b.ne	1f58 <_cs_wait+0x68>
    1f3c:	b00001e0 	adrp	x0, 3e000 <__exidx_end>
    1f40:	910a8000 	add	x0, x0, #0x2a0
    1f44:	39403000 	ldrb	w0, [x0,#12]
    1f48:	121d0000 	and	w0, w0, #0x8
    1f4c:	12001c00 	and	w0, w0, #0xff
    1f50:	7100001f 	cmp	w0, #0x0
    1f54:	54000120 	b.eq	1f78 <_cs_wait+0x88>
    1f58:	f9400fa0 	ldr	x0, [x29,#24]
    1f5c:	f9400801 	ldr	x1, [x0,#16]
    1f60:	90000160 	adrp	x0, 2d000 <__hexnan+0xf8>
    1f64:	91348000 	add	x0, x0, #0xd20
    1f68:	b9402fa4 	ldr	w4, [x29,#44]
    1f6c:	b94013a3 	ldr	w3, [x29,#16]
    1f70:	b94017a2 	ldr	w2, [x29,#20]
    1f74:	97fffbf1 	bl	f38 <_diagf>
    1f78:	52800000 	mov	w0, #0x0                   	// #0
    1f7c:	14000011 	b	1fc0 <_cs_wait+0xd0>
    1f80:	b9402fa0 	ldr	w0, [x29,#44]
    1f84:	11000400 	add	w0, w0, #0x1
    1f88:	b9002fa0 	str	w0, [x29,#44]
    1f8c:	f0000180 	adrp	x0, 34000 <__hexdig+0x420>
    1f90:	911ac000 	add	x0, x0, #0x6b0
    1f94:	b9400000 	ldr	w0, [x0]
    1f98:	b9402fa1 	ldr	w1, [x29,#44]
    1f9c:	6b00003f 	cmp	w1, w0
    1fa0:	54fffb6b 	b.lt	1f0c <_cs_wait+0x1c>
    1fa4:	90000160 	adrp	x0, 2d000 <__hexnan+0xf8>
    1fa8:	91354000 	add	x0, x0, #0xd50
    1fac:	b94013a3 	ldr	w3, [x29,#16]
    1fb0:	b94017a2 	ldr	w2, [x29,#20]
    1fb4:	aa0003e1 	mov	x1, x0
    1fb8:	f9400fa0 	ldr	x0, [x29,#24]
    1fbc:	97fffcd7 	bl	1318 <cs_report_device_error>
    1fc0:	a8c37bfd 	ldp	x29, x30, [sp],#48
    1fc4:	d65f03c0 	ret

0000000000001fc8 <_cs_waitnot>:
    1fc8:	a9bd7bfd 	stp	x29, x30, [sp,#-48]!
    1fcc:	910003fd 	mov	x29, sp
    1fd0:	f9000fa0 	str	x0, [x29,#24]
    1fd4:	b90017a1 	str	w1, [x29,#20]
    1fd8:	b90013a2 	str	w2, [x29,#16]
    1fdc:	b9002fbf 	str	wzr, [x29,#44]
    1fe0:	14000021 	b	2064 <_cs_waitnot+0x9c>
    1fe4:	b94013a2 	ldr	w2, [x29,#16]
    1fe8:	b94017a1 	ldr	w1, [x29,#20]
    1fec:	f9400fa0 	ldr	x0, [x29,#24]
    1ff0:	97ffffaf 	bl	1eac <_cs_isset>
    1ff4:	7100001f 	cmp	w0, #0x0
    1ff8:	54000301 	b.ne	2058 <_cs_waitnot+0x90>
    1ffc:	f9400fa0 	ldr	x0, [x29,#24]
    2000:	3940f000 	ldrb	w0, [x0,#60]
    2004:	121e0000 	and	w0, w0, #0x4
    2008:	12001c00 	and	w0, w0, #0xff
    200c:	7100001f 	cmp	w0, #0x0
    2010:	54000101 	b.ne	2030 <_cs_waitnot+0x68>
    2014:	900001e0 	adrp	x0, 3e000 <__exidx_end>
    2018:	910a8000 	add	x0, x0, #0x2a0
    201c:	39403000 	ldrb	w0, [x0,#12]
    2020:	121d0000 	and	w0, w0, #0x8
    2024:	12001c00 	and	w0, w0, #0xff
    2028:	7100001f 	cmp	w0, #0x0
    202c:	54000120 	b.eq	2050 <_cs_waitnot+0x88>
    2030:	f9400fa0 	ldr	x0, [x29,#24]
    2034:	f9400801 	ldr	x1, [x0,#16]
    2038:	f0000140 	adrp	x0, 2d000 <__hexnan+0xf8>
    203c:	9135c000 	add	x0, x0, #0xd70
    2040:	b9402fa4 	ldr	w4, [x29,#44]
    2044:	b94013a3 	ldr	w3, [x29,#16]
    2048:	b94017a2 	ldr	w2, [x29,#20]
    204c:	97fffbbb 	bl	f38 <_diagf>
    2050:	52800000 	mov	w0, #0x0                   	// #0
    2054:	14000011 	b	2098 <_cs_waitnot+0xd0>
    2058:	b9402fa0 	ldr	w0, [x29,#44]
    205c:	11000400 	add	w0, w0, #0x1
    2060:	b9002fa0 	str	w0, [x29,#44]
    2064:	d0000180 	adrp	x0, 34000 <__hexdig+0x420>
    2068:	911ac000 	add	x0, x0, #0x6b0
    206c:	b9400000 	ldr	w0, [x0]
    2070:	b9402fa1 	ldr	w1, [x29,#44]
    2074:	6b00003f 	cmp	w1, w0
    2078:	54fffb6b 	b.lt	1fe4 <_cs_waitnot+0x1c>
    207c:	f0000140 	adrp	x0, 2d000 <__hexnan+0xf8>
    2080:	9136a000 	add	x0, x0, #0xda8
    2084:	b94013a3 	ldr	w3, [x29,#16]
    2088:	b94017a2 	ldr	w2, [x29,#20]
    208c:	aa0003e1 	mov	x1, x0
    2090:	f9400fa0 	ldr	x0, [x29,#24]
    2094:	97fffca1 	bl	1318 <cs_report_device_error>
    2098:	a8c37bfd 	ldp	x29, x30, [sp],#48
    209c:	d65f03c0 	ret

00000000000020a0 <_cs_set_wait_iterations>:
    20a0:	d10043ff 	sub	sp, sp, #0x10
    20a4:	b9000fe0 	str	w0, [sp,#12]
    20a8:	d0000180 	adrp	x0, 34000 <__hexdig+0x420>
    20ac:	911ac000 	add	x0, x0, #0x6b0
    20b0:	b9400fe1 	ldr	w1, [sp,#12]
    20b4:	b9000001 	str	w1, [x0]
    20b8:	d503201f 	nop
    20bc:	910043ff 	add	sp, sp, #0x10
    20c0:	d65f03c0 	ret

00000000000020c4 <_cs_waitbits>:
    20c4:	a9bc7bfd 	stp	x29, x30, [sp,#-64]!
    20c8:	910003fd 	mov	x29, sp
    20cc:	f90017a0 	str	x0, [x29,#40]
    20d0:	b90027a1 	str	w1, [x29,#36]
    20d4:	b90023a2 	str	w2, [x29,#32]
    20d8:	b9001fa3 	str	w3, [x29,#28]
    20dc:	b9001ba4 	str	w4, [x29,#24]
    20e0:	f9000ba5 	str	x5, [x29,#16]
    20e4:	b9003fbf 	str	wzr, [x29,#60]
    20e8:	12800000 	mov	w0, #0xffffffff            	// #-1
    20ec:	b9003ba0 	str	w0, [x29,#56]
    20f0:	b90037bf 	str	wzr, [x29,#52]
    20f4:	140000b0 	b	23b4 <_cs_waitbits+0x2f0>
    20f8:	b94027a1 	ldr	w1, [x29,#36]
    20fc:	f94017a0 	ldr	x0, [x29,#40]
    2100:	97fffd4a 	bl	1628 <_cs_read>
    2104:	b9003fa0 	str	w0, [x29,#60]
    2108:	b9401fa0 	ldr	w0, [x29,#28]
    210c:	71000c1f 	cmp	w0, #0x3
    2110:	540008c0 	b.eq	2228 <_cs_waitbits+0x164>
    2114:	71000c1f 	cmp	w0, #0x3
    2118:	540000c8 	b.hi	2130 <_cs_waitbits+0x6c>
    211c:	7100041f 	cmp	w0, #0x1
    2120:	54000120 	b.eq	2144 <_cs_waitbits+0x80>
    2124:	7100081f 	cmp	w0, #0x2
    2128:	54000480 	b.eq	21b8 <_cs_waitbits+0xf4>
    212c:	1400009c 	b	239c <_cs_waitbits+0x2d8>
    2130:	7100101f 	cmp	w0, #0x4
    2134:	54000b20 	b.eq	2298 <_cs_waitbits+0x1d4>
    2138:	7100141f 	cmp	w0, #0x5
    213c:	54000e80 	b.eq	230c <_cs_waitbits+0x248>
    2140:	14000097 	b	239c <_cs_waitbits+0x2d8>
    2144:	b9403fa1 	ldr	w1, [x29,#60]
    2148:	b94023a0 	ldr	w0, [x29,#32]
    214c:	0a000021 	and	w1, w1, w0
    2150:	b94023a0 	ldr	w0, [x29,#32]
    2154:	6b00003f 	cmp	w1, w0
    2158:	54001181 	b.ne	2388 <_cs_waitbits+0x2c4>
    215c:	f94017a0 	ldr	x0, [x29,#40]
    2160:	3940f000 	ldrb	w0, [x0,#60]
    2164:	121e0000 	and	w0, w0, #0x4
    2168:	12001c00 	and	w0, w0, #0xff
    216c:	7100001f 	cmp	w0, #0x0
    2170:	54000101 	b.ne	2190 <_cs_waitbits+0xcc>
    2174:	900001e0 	adrp	x0, 3e000 <__exidx_end>
    2178:	910a8000 	add	x0, x0, #0x2a0
    217c:	39403000 	ldrb	w0, [x0,#12]
    2180:	121d0000 	and	w0, w0, #0x8
    2184:	12001c00 	and	w0, w0, #0xff
    2188:	7100001f 	cmp	w0, #0x0
    218c:	54000120 	b.eq	21b0 <_cs_waitbits+0xec>
    2190:	f94017a0 	ldr	x0, [x29,#40]
    2194:	f9400801 	ldr	x1, [x0,#16]
    2198:	f0000140 	adrp	x0, 2d000 <__hexnan+0xf8>
    219c:	91372000 	add	x0, x0, #0xdc8
    21a0:	b94037a4 	ldr	w4, [x29,#52]
    21a4:	b94023a3 	ldr	w3, [x29,#32]
    21a8:	b94027a2 	ldr	w2, [x29,#36]
    21ac:	97fffb63 	bl	f38 <_diagf>
    21b0:	b9003bbf 	str	wzr, [x29,#56]
    21b4:	14000075 	b	2388 <_cs_waitbits+0x2c4>
    21b8:	b9403fa1 	ldr	w1, [x29,#60]
    21bc:	b94023a0 	ldr	w0, [x29,#32]
    21c0:	0a000020 	and	w0, w1, w0
    21c4:	7100001f 	cmp	w0, #0x0
    21c8:	54000e40 	b.eq	2390 <_cs_waitbits+0x2cc>
    21cc:	f94017a0 	ldr	x0, [x29,#40]
    21d0:	3940f000 	ldrb	w0, [x0,#60]
    21d4:	121e0000 	and	w0, w0, #0x4
    21d8:	12001c00 	and	w0, w0, #0xff
    21dc:	7100001f 	cmp	w0, #0x0
    21e0:	54000101 	b.ne	2200 <_cs_waitbits+0x13c>
    21e4:	900001e0 	adrp	x0, 3e000 <__exidx_end>
    21e8:	910a8000 	add	x0, x0, #0x2a0
    21ec:	39403000 	ldrb	w0, [x0,#12]
    21f0:	121d0000 	and	w0, w0, #0x8
    21f4:	12001c00 	and	w0, w0, #0xff
    21f8:	7100001f 	cmp	w0, #0x0
    21fc:	54000120 	b.eq	2220 <_cs_waitbits+0x15c>
    2200:	f94017a0 	ldr	x0, [x29,#40]
    2204:	f9400801 	ldr	x1, [x0,#16]
    2208:	f0000140 	adrp	x0, 2d000 <__hexnan+0xf8>
    220c:	9137e000 	add	x0, x0, #0xdf8
    2210:	b94037a4 	ldr	w4, [x29,#52]
    2214:	b94023a3 	ldr	w3, [x29,#32]
    2218:	b94027a2 	ldr	w2, [x29,#36]
    221c:	97fffb47 	bl	f38 <_diagf>
    2220:	b9003bbf 	str	wzr, [x29,#56]
    2224:	1400005b 	b	2390 <_cs_waitbits+0x2cc>
    2228:	b9403fa1 	ldr	w1, [x29,#60]
    222c:	b94023a0 	ldr	w0, [x29,#32]
    2230:	0a000020 	and	w0, w1, w0
    2234:	7100001f 	cmp	w0, #0x0
    2238:	54000b01 	b.ne	2398 <_cs_waitbits+0x2d4>
    223c:	f94017a0 	ldr	x0, [x29,#40]
    2240:	3940f000 	ldrb	w0, [x0,#60]
    2244:	121e0000 	and	w0, w0, #0x4
    2248:	12001c00 	and	w0, w0, #0xff
    224c:	7100001f 	cmp	w0, #0x0
    2250:	54000101 	b.ne	2270 <_cs_waitbits+0x1ac>
    2254:	900001e0 	adrp	x0, 3e000 <__exidx_end>
    2258:	910a8000 	add	x0, x0, #0x2a0
    225c:	39403000 	ldrb	w0, [x0,#12]
    2260:	121d0000 	and	w0, w0, #0x8
    2264:	12001c00 	and	w0, w0, #0xff
    2268:	7100001f 	cmp	w0, #0x0
    226c:	54000120 	b.eq	2290 <_cs_waitbits+0x1cc>
    2270:	f94017a0 	ldr	x0, [x29,#40]
    2274:	f9400801 	ldr	x1, [x0,#16]
    2278:	f0000140 	adrp	x0, 2d000 <__hexnan+0xf8>
    227c:	9138c000 	add	x0, x0, #0xe30
    2280:	b94037a4 	ldr	w4, [x29,#52]
    2284:	b94023a3 	ldr	w3, [x29,#32]
    2288:	b94027a2 	ldr	w2, [x29,#36]
    228c:	97fffb2b 	bl	f38 <_diagf>
    2290:	b9003bbf 	str	wzr, [x29,#56]
    2294:	14000041 	b	2398 <_cs_waitbits+0x2d4>
    2298:	b9403fa1 	ldr	w1, [x29,#60]
    229c:	b94023a0 	ldr	w0, [x29,#32]
    22a0:	0a000021 	and	w1, w1, w0
    22a4:	b94023a0 	ldr	w0, [x29,#32]
    22a8:	6b00003f 	cmp	w1, w0
    22ac:	54000300 	b.eq	230c <_cs_waitbits+0x248>
    22b0:	f94017a0 	ldr	x0, [x29,#40]
    22b4:	3940f000 	ldrb	w0, [x0,#60]
    22b8:	121e0000 	and	w0, w0, #0x4
    22bc:	12001c00 	and	w0, w0, #0xff
    22c0:	7100001f 	cmp	w0, #0x0
    22c4:	54000101 	b.ne	22e4 <_cs_waitbits+0x220>
    22c8:	900001e0 	adrp	x0, 3e000 <__exidx_end>
    22cc:	910a8000 	add	x0, x0, #0x2a0
    22d0:	39403000 	ldrb	w0, [x0,#12]
    22d4:	121d0000 	and	w0, w0, #0x8
    22d8:	12001c00 	and	w0, w0, #0xff
    22dc:	7100001f 	cmp	w0, #0x0
    22e0:	54000120 	b.eq	2304 <_cs_waitbits+0x240>
    22e4:	f94017a0 	ldr	x0, [x29,#40]
    22e8:	f9400801 	ldr	x1, [x0,#16]
    22ec:	f0000140 	adrp	x0, 2d000 <__hexnan+0xf8>
    22f0:	9139a000 	add	x0, x0, #0xe68
    22f4:	b94037a4 	ldr	w4, [x29,#52]
    22f8:	b94023a3 	ldr	w3, [x29,#32]
    22fc:	b94027a2 	ldr	w2, [x29,#36]
    2300:	97fffb0e 	bl	f38 <_diagf>
    2304:	b9003bbf 	str	wzr, [x29,#56]
    2308:	14000025 	b	239c <_cs_waitbits+0x2d8>
    230c:	b9403fa1 	ldr	w1, [x29,#60]
    2310:	b9401ba0 	ldr	w0, [x29,#24]
    2314:	4a000021 	eor	w1, w1, w0
    2318:	b94023a0 	ldr	w0, [x29,#32]
    231c:	0a000020 	and	w0, w1, w0
    2320:	7100001f 	cmp	w0, #0x0
    2324:	540003c1 	b.ne	239c <_cs_waitbits+0x2d8>
    2328:	f94017a0 	ldr	x0, [x29,#40]
    232c:	3940f000 	ldrb	w0, [x0,#60]
    2330:	121e0000 	and	w0, w0, #0x4
    2334:	12001c00 	and	w0, w0, #0xff
    2338:	7100001f 	cmp	w0, #0x0
    233c:	54000101 	b.ne	235c <_cs_waitbits+0x298>
    2340:	900001e0 	adrp	x0, 3e000 <__exidx_end>
    2344:	910a8000 	add	x0, x0, #0x2a0
    2348:	39403000 	ldrb	w0, [x0,#12]
    234c:	121d0000 	and	w0, w0, #0x8
    2350:	12001c00 	and	w0, w0, #0xff
    2354:	7100001f 	cmp	w0, #0x0
    2358:	54000140 	b.eq	2380 <_cs_waitbits+0x2bc>
    235c:	f94017a0 	ldr	x0, [x29,#40]
    2360:	f9400801 	ldr	x1, [x0,#16]
    2364:	f0000140 	adrp	x0, 2d000 <__hexnan+0xf8>
    2368:	913a8000 	add	x0, x0, #0xea0
    236c:	b94037a5 	ldr	w5, [x29,#52]
    2370:	b9401ba4 	ldr	w4, [x29,#24]
    2374:	b94023a3 	ldr	w3, [x29,#32]
    2378:	b94027a2 	ldr	w2, [x29,#36]
    237c:	97fffaef 	bl	f38 <_diagf>
    2380:	b9003bbf 	str	wzr, [x29,#56]
    2384:	14000006 	b	239c <_cs_waitbits+0x2d8>
    2388:	d503201f 	nop
    238c:	14000004 	b	239c <_cs_waitbits+0x2d8>
    2390:	d503201f 	nop
    2394:	14000002 	b	239c <_cs_waitbits+0x2d8>
    2398:	d503201f 	nop
    239c:	b9403ba0 	ldr	w0, [x29,#56]
    23a0:	7100001f 	cmp	w0, #0x0
    23a4:	54000160 	b.eq	23d0 <_cs_waitbits+0x30c>
    23a8:	b94037a0 	ldr	w0, [x29,#52]
    23ac:	11000400 	add	w0, w0, #0x1
    23b0:	b90037a0 	str	w0, [x29,#52]
    23b4:	d0000180 	adrp	x0, 34000 <__hexdig+0x420>
    23b8:	911ac000 	add	x0, x0, #0x6b0
    23bc:	b9400000 	ldr	w0, [x0]
    23c0:	b94037a1 	ldr	w1, [x29,#52]
    23c4:	6b00003f 	cmp	w1, w0
    23c8:	54ffe98b 	b.lt	20f8 <_cs_waitbits+0x34>
    23cc:	14000002 	b	23d4 <_cs_waitbits+0x310>
    23d0:	d503201f 	nop
    23d4:	f9400ba0 	ldr	x0, [x29,#16]
    23d8:	f100001f 	cmp	x0, #0x0
    23dc:	54000080 	b.eq	23ec <_cs_waitbits+0x328>
    23e0:	f9400ba0 	ldr	x0, [x29,#16]
    23e4:	b9403fa1 	ldr	w1, [x29,#60]
    23e8:	b9000001 	str	w1, [x0]
    23ec:	b9403ba0 	ldr	w0, [x29,#56]
    23f0:	7100001f 	cmp	w0, #0x0
    23f4:	54000380 	b.eq	2464 <_cs_waitbits+0x3a0>
    23f8:	b9401fa0 	ldr	w0, [x29,#28]
    23fc:	7100141f 	cmp	w0, #0x5
    2400:	540001c1 	b.ne	2438 <_cs_waitbits+0x374>
    2404:	b9401fa0 	ldr	w0, [x29,#28]
    2408:	51000401 	sub	w1, w0, #0x1
    240c:	d0000180 	adrp	x0, 34000 <__hexdig+0x420>
    2410:	911ae000 	add	x0, x0, #0x6b8
    2414:	2a0103e1 	mov	w1, w1
    2418:	f8617800 	ldr	x0, [x0,x1,lsl #3]
    241c:	b9401ba4 	ldr	w4, [x29,#24]
    2420:	b94023a3 	ldr	w3, [x29,#32]
    2424:	b94027a2 	ldr	w2, [x29,#36]
    2428:	aa0003e1 	mov	x1, x0
    242c:	f94017a0 	ldr	x0, [x29,#40]
    2430:	97fffbba 	bl	1318 <cs_report_device_error>
    2434:	1400000c 	b	2464 <_cs_waitbits+0x3a0>
    2438:	b9401fa0 	ldr	w0, [x29,#28]
    243c:	51000401 	sub	w1, w0, #0x1
    2440:	d0000180 	adrp	x0, 34000 <__hexdig+0x420>
    2444:	911ae000 	add	x0, x0, #0x6b8
    2448:	2a0103e1 	mov	w1, w1
    244c:	f8617800 	ldr	x0, [x0,x1,lsl #3]
    2450:	b94023a3 	ldr	w3, [x29,#32]
    2454:	b94027a2 	ldr	w2, [x29,#36]
    2458:	aa0003e1 	mov	x1, x0
    245c:	f94017a0 	ldr	x0, [x29,#40]
    2460:	97fffbae 	bl	1318 <cs_report_device_error>
    2464:	b9403ba0 	ldr	w0, [x29,#56]
    2468:	a8c47bfd 	ldp	x29, x30, [sp],#64
    246c:	d65f03c0 	ret

0000000000002470 <_cs_claim>:
    2470:	a9be7bfd 	stp	x29, x30, [sp,#-32]!
    2474:	910003fd 	mov	x29, sp
    2478:	f9000fa0 	str	x0, [x29,#24]
    247c:	b90017a1 	str	w1, [x29,#20]
    2480:	b94017a2 	ldr	w2, [x29,#20]
    2484:	5281f401 	mov	w1, #0xfa0                 	// #4000
    2488:	f9400fa0 	ldr	x0, [x29,#24]
    248c:	97fffccf 	bl	17c8 <_cs_write_wo>
    2490:	a8c27bfd 	ldp	x29, x30, [sp],#32
    2494:	d65f03c0 	ret

0000000000002498 <_cs_unclaim>:
    2498:	a9be7bfd 	stp	x29, x30, [sp,#-32]!
    249c:	910003fd 	mov	x29, sp
    24a0:	f9000fa0 	str	x0, [x29,#24]
    24a4:	b90017a1 	str	w1, [x29,#20]
    24a8:	b94017a2 	ldr	w2, [x29,#20]
    24ac:	5281f481 	mov	w1, #0xfa4                 	// #4004
    24b0:	f9400fa0 	ldr	x0, [x29,#24]
    24b4:	97fffcc5 	bl	17c8 <_cs_write_wo>
    24b8:	a8c27bfd 	ldp	x29, x30, [sp],#32
    24bc:	d65f03c0 	ret

00000000000024c0 <_cs_isclaimed>:
    24c0:	a9be7bfd 	stp	x29, x30, [sp,#-32]!
    24c4:	910003fd 	mov	x29, sp
    24c8:	f9000fa0 	str	x0, [x29,#24]
    24cc:	b90017a1 	str	w1, [x29,#20]
    24d0:	b94017a2 	ldr	w2, [x29,#20]
    24d4:	5281f481 	mov	w1, #0xfa4                 	// #4004
    24d8:	f9400fa0 	ldr	x0, [x29,#24]
    24dc:	97fffe74 	bl	1eac <_cs_isset>
    24e0:	a8c27bfd 	ldp	x29, x30, [sp],#32
    24e4:	d65f03c0 	ret

00000000000024e8 <_cs_isunlocked>:
    24e8:	a9be7bfd 	stp	x29, x30, [sp,#-32]!
    24ec:	910003fd 	mov	x29, sp
    24f0:	f9000fa0 	str	x0, [x29,#24]
    24f4:	5281f681 	mov	w1, #0xfb4                 	// #4020
    24f8:	f9400fa0 	ldr	x0, [x29,#24]
    24fc:	97fffc4b 	bl	1628 <_cs_read>
    2500:	12000400 	and	w0, w0, #0x3
    2504:	7100041f 	cmp	w0, #0x1
    2508:	1a9f17e0 	cset	w0, eq
    250c:	12001c00 	and	w0, w0, #0xff
    2510:	a8c27bfd 	ldp	x29, x30, [sp],#32
    2514:	d65f03c0 	ret

0000000000002518 <_cs_unlock>:
    2518:	a9bd7bfd 	stp	x29, x30, [sp,#-48]!
    251c:	910003fd 	mov	x29, sp
    2520:	f9000fa0 	str	x0, [x29,#24]
    2524:	f9400fa0 	ldr	x0, [x29,#24]
    2528:	3940f000 	ldrb	w0, [x0,#60]
    252c:	12000000 	and	w0, w0, #0x1
    2530:	12001c00 	and	w0, w0, #0xff
    2534:	7100001f 	cmp	w0, #0x0
    2538:	54000141 	b.ne	2560 <_cs_unlock+0x48>
    253c:	5299caa2 	mov	w2, #0xce55                	// #52821
    2540:	72b8b582 	movk	w2, #0xc5ac, lsl #16
    2544:	5281f601 	mov	w1, #0xfb0                 	// #4016
    2548:	f9400fa0 	ldr	x0, [x29,#24]
    254c:	97fffc9f 	bl	17c8 <_cs_write_wo>
    2550:	f9400fa0 	ldr	x0, [x29,#24]
    2554:	3940f001 	ldrb	w1, [x0,#60]
    2558:	32000021 	orr	w1, w1, #0x1
    255c:	3900f001 	strb	w1, [x0,#60]
    2560:	900001e0 	adrp	x0, 3e000 <__exidx_end>
    2564:	910a8000 	add	x0, x0, #0x2a0
    2568:	39403000 	ldrb	w0, [x0,#12]
    256c:	121c0000 	and	w0, w0, #0x10
    2570:	12001c00 	and	w0, w0, #0xff
    2574:	7100001f 	cmp	w0, #0x0
    2578:	540001e0 	b.eq	25b4 <_cs_unlock+0x9c>
    257c:	5281f681 	mov	w1, #0xfb4                 	// #4020
    2580:	f9400fa0 	ldr	x0, [x29,#24]
    2584:	97fffc29 	bl	1628 <_cs_read>
    2588:	b9002fa0 	str	w0, [x29,#44]
    258c:	b9402fa0 	ldr	w0, [x29,#44]
    2590:	12000400 	and	w0, w0, #0x3
    2594:	71000c1f 	cmp	w0, #0x3
    2598:	540000e1 	b.ne	25b4 <_cs_unlock+0x9c>
    259c:	f9400fa0 	ldr	x0, [x29,#24]
    25a0:	f9400801 	ldr	x1, [x0,#16]
    25a4:	f0000140 	adrp	x0, 2d000 <__hexnan+0xf8>
    25a8:	913ba000 	add	x0, x0, #0xee8
    25ac:	b9402fa2 	ldr	w2, [x29,#44]
    25b0:	97fffa62 	bl	f38 <_diagf>
    25b4:	d503201f 	nop
    25b8:	a8c37bfd 	ldp	x29, x30, [sp],#48
    25bc:	d65f03c0 	ret

00000000000025c0 <_cs_lock>:
    25c0:	a9bd7bfd 	stp	x29, x30, [sp,#-48]!
    25c4:	910003fd 	mov	x29, sp
    25c8:	f9000fa0 	str	x0, [x29,#24]
    25cc:	f9400fa0 	ldr	x0, [x29,#24]
    25d0:	3940f000 	ldrb	w0, [x0,#60]
    25d4:	12000000 	and	w0, w0, #0x1
    25d8:	12001c00 	and	w0, w0, #0xff
    25dc:	7100001f 	cmp	w0, #0x0
    25e0:	54000120 	b.eq	2604 <_cs_lock+0x44>
    25e4:	52800002 	mov	w2, #0x0                   	// #0
    25e8:	5281f601 	mov	w1, #0xfb0                 	// #4016
    25ec:	f9400fa0 	ldr	x0, [x29,#24]
    25f0:	97fffc76 	bl	17c8 <_cs_write_wo>
    25f4:	f9400fa0 	ldr	x0, [x29,#24]
    25f8:	3940f001 	ldrb	w1, [x0,#60]
    25fc:	121f7821 	and	w1, w1, #0xfffffffe
    2600:	3900f001 	strb	w1, [x0,#60]
    2604:	900001e0 	adrp	x0, 3e000 <__exidx_end>
    2608:	910a8000 	add	x0, x0, #0x2a0
    260c:	39403000 	ldrb	w0, [x0,#12]
    2610:	121c0000 	and	w0, w0, #0x10
    2614:	12001c00 	and	w0, w0, #0xff
    2618:	7100001f 	cmp	w0, #0x0
    261c:	540001e0 	b.eq	2658 <_cs_lock+0x98>
    2620:	5281f681 	mov	w1, #0xfb4                 	// #4020
    2624:	f9400fa0 	ldr	x0, [x29,#24]
    2628:	97fffc00 	bl	1628 <_cs_read>
    262c:	b9002fa0 	str	w0, [x29,#44]
    2630:	b9402fa0 	ldr	w0, [x29,#44]
    2634:	12000400 	and	w0, w0, #0x3
    2638:	7100041f 	cmp	w0, #0x1
    263c:	540000e1 	b.ne	2658 <_cs_lock+0x98>
    2640:	f9400fa0 	ldr	x0, [x29,#24]
    2644:	f9400801 	ldr	x1, [x0,#16]
    2648:	f0000140 	adrp	x0, 2d000 <__hexnan+0xf8>
    264c:	913c2000 	add	x0, x0, #0xf08
    2650:	b9402fa2 	ldr	w2, [x29,#44]
    2654:	97fffa39 	bl	f38 <_diagf>
    2658:	d503201f 	nop
    265c:	a8c37bfd 	ldp	x29, x30, [sp],#48
    2660:	d65f03c0 	ret

0000000000002664 <io_map>:
    2664:	a9bd7bfd 	stp	x29, x30, [sp,#-48]!
    2668:	910003fd 	mov	x29, sp
    266c:	f9000fa0 	str	x0, [x29,#24]
    2670:	b90017a1 	str	w1, [x29,#20]
    2674:	b90013a2 	str	w2, [x29,#16]
    2678:	f9400fa0 	ldr	x0, [x29,#24]
    267c:	f90017a0 	str	x0, [x29,#40]
    2680:	b94017a0 	ldr	w0, [x29,#20]
    2684:	7100001f 	cmp	w0, #0x0
    2688:	54000161 	b.ne	26b4 <io_map+0x50>
    268c:	f0000140 	adrp	x0, 2d000 <__hexnan+0xf8>
    2690:	913ca002 	add	x2, x0, #0xf28
    2694:	90000160 	adrp	x0, 2e000 <__func__.5451+0x38>
    2698:	91050001 	add	x1, x0, #0x140
    269c:	f0000140 	adrp	x0, 2d000 <__hexnan+0xf8>
    26a0:	912e6000 	add	x0, x0, #0xb98
    26a4:	aa0203e3 	mov	x3, x2
    26a8:	aa0103e2 	mov	x2, x1
    26ac:	52804241 	mov	w1, #0x212                 	// #530
    26b0:	94004d72 	bl	15c78 <__assert_func>
    26b4:	f9400fa0 	ldr	x0, [x29,#24]
    26b8:	92402c00 	and	x0, x0, #0xfff
    26bc:	f100001f 	cmp	x0, #0x0
    26c0:	54000160 	b.eq	26ec <io_map+0x88>
    26c4:	f0000140 	adrp	x0, 2d000 <__hexnan+0xf8>
    26c8:	913ce002 	add	x2, x0, #0xf38
    26cc:	90000160 	adrp	x0, 2e000 <__func__.5451+0x38>
    26d0:	91050001 	add	x1, x0, #0x140
    26d4:	f0000140 	adrp	x0, 2d000 <__hexnan+0xf8>
    26d8:	912e6000 	add	x0, x0, #0xb98
    26dc:	aa0203e3 	mov	x3, x2
    26e0:	aa0103e2 	mov	x2, x1
    26e4:	52804261 	mov	w1, #0x213                 	// #531
    26e8:	94004d64 	bl	15c78 <__assert_func>
    26ec:	f94017a0 	ldr	x0, [x29,#40]
    26f0:	f90013a0 	str	x0, [x29,#32]
    26f4:	f94013a0 	ldr	x0, [x29,#32]
    26f8:	a8c37bfd 	ldp	x29, x30, [sp],#48
    26fc:	d65f03c0 	ret

0000000000002700 <io_unmap>:
    2700:	d10043ff 	sub	sp, sp, #0x10
    2704:	f90007e0 	str	x0, [sp,#8]
    2708:	b90007e1 	str	w1, [sp,#4]
    270c:	d503201f 	nop
    2710:	910043ff 	add	sp, sp, #0x10
    2714:	d65f03c0 	ret

0000000000002718 <cs_cti_get_global_channels>:
    2718:	a9bd7bfd 	stp	x29, x30, [sp,#-48]!
    271c:	910003fd 	mov	x29, sp
    2720:	f9000fa0 	str	x0, [x29,#24]
    2724:	f9400fa0 	ldr	x0, [x29,#24]
    2728:	97fffb45 	bl	143c <cs_get_device_struct>
    272c:	f90017a0 	str	x0, [x29,#40]
    2730:	f94017a0 	ldr	x0, [x29,#40]
    2734:	b9402400 	ldr	w0, [x0,#36]
    2738:	7100281f 	cmp	w0, #0xa
    273c:	54000160 	b.eq	2768 <cs_cti_get_global_channels+0x50>
    2740:	90000160 	adrp	x0, 2e000 <__func__.5451+0x38>
    2744:	91052002 	add	x2, x0, #0x148
    2748:	90000160 	adrp	x0, 2e000 <__func__.5451+0x38>
    274c:	9116e001 	add	x1, x0, #0x5b8
    2750:	90000160 	adrp	x0, 2e000 <__func__.5451+0x38>
    2754:	91058000 	add	x0, x0, #0x160
    2758:	aa0203e3 	mov	x3, x2
    275c:	aa0103e2 	mov	x2, x1
    2760:	528005a1 	mov	w1, #0x2d                  	// #45
    2764:	94004d45 	bl	15c78 <__assert_func>
    2768:	f94017a0 	ldr	x0, [x29,#40]
    276c:	97ffff6b 	bl	2518 <_cs_unlock>
    2770:	52802801 	mov	w1, #0x140                 	// #320
    2774:	f94017a0 	ldr	x0, [x29,#40]
    2778:	97fffbac 	bl	1628 <_cs_read>
    277c:	a8c37bfd 	ldp	x29, x30, [sp],#48
    2780:	d65f03c0 	ret

0000000000002784 <cs_ect_is_local>:
    2784:	a9bd7bfd 	stp	x29, x30, [sp,#-48]!
    2788:	910003fd 	mov	x29, sp
    278c:	f9000fa0 	str	x0, [x29,#24]
    2790:	f9400fa0 	ldr	x0, [x29,#24]
    2794:	f90017a0 	str	x0, [x29,#40]
    2798:	f94017a0 	ldr	x0, [x29,#40]
    279c:	b9400800 	ldr	w0, [x0,#8]
    27a0:	7100001f 	cmp	w0, #0x0
    27a4:	54000161 	b.ne	27d0 <cs_ect_is_local+0x4c>
    27a8:	90000160 	adrp	x0, 2e000 <__func__.5451+0x38>
    27ac:	9105e002 	add	x2, x0, #0x178
    27b0:	90000160 	adrp	x0, 2e000 <__func__.5451+0x38>
    27b4:	91176001 	add	x1, x0, #0x5d8
    27b8:	90000160 	adrp	x0, 2e000 <__func__.5451+0x38>
    27bc:	91058000 	add	x0, x0, #0x160
    27c0:	aa0203e3 	mov	x3, x2
    27c4:	aa0103e2 	mov	x2, x1
    27c8:	52800741 	mov	w1, #0x3a                  	// #58
    27cc:	94004d2b 	bl	15c78 <__assert_func>
    27d0:	f94017a0 	ldr	x0, [x29,#40]
    27d4:	b9400800 	ldr	w0, [x0,#8]
    27d8:	7100041f 	cmp	w0, #0x1
    27dc:	1a9f17e0 	cset	w0, eq
    27e0:	12001c00 	and	w0, w0, #0xff
    27e4:	a8c37bfd 	ldp	x29, x30, [sp],#48
    27e8:	d65f03c0 	ret

00000000000027ec <cs_channel_uses_cti>:
    27ec:	a9bd7bfd 	stp	x29, x30, [sp,#-48]!
    27f0:	910003fd 	mov	x29, sp
    27f4:	f9000fa0 	str	x0, [x29,#24]
    27f8:	f9000ba1 	str	x1, [x29,#16]
    27fc:	f9400fa0 	ldr	x0, [x29,#24]
    2800:	f90013a0 	str	x0, [x29,#32]
    2804:	f9400ba0 	ldr	x0, [x29,#16]
    2808:	97fffb0d 	bl	143c <cs_get_device_struct>
    280c:	b9402400 	ldr	w0, [x0,#36]
    2810:	7100281f 	cmp	w0, #0xa
    2814:	54000160 	b.eq	2840 <cs_channel_uses_cti+0x54>
    2818:	90000160 	adrp	x0, 2e000 <__func__.5451+0x38>
    281c:	91062002 	add	x2, x0, #0x188
    2820:	90000160 	adrp	x0, 2e000 <__func__.5451+0x38>
    2824:	9117a001 	add	x1, x0, #0x5e8
    2828:	90000160 	adrp	x0, 2e000 <__func__.5451+0x38>
    282c:	91058000 	add	x0, x0, #0x160
    2830:	aa0203e3 	mov	x3, x2
    2834:	aa0103e2 	mov	x2, x1
    2838:	528008a1 	mov	w1, #0x45                  	// #69
    283c:	94004d0f 	bl	15c78 <__assert_func>
    2840:	b9002fbf 	str	wzr, [x29,#44]
    2844:	1400000d 	b	2878 <cs_channel_uses_cti+0x8c>
    2848:	f94013a0 	ldr	x0, [x29,#32]
    284c:	b9402fa1 	ldr	w1, [x29,#44]
    2850:	91010821 	add	x1, x1, #0x42
    2854:	f8617801 	ldr	x1, [x0,x1,lsl #3]
    2858:	f9400ba0 	ldr	x0, [x29,#16]
    285c:	eb00003f 	cmp	x1, x0
    2860:	54000061 	b.ne	286c <cs_channel_uses_cti+0x80>
    2864:	52800020 	mov	w0, #0x1                   	// #1
    2868:	1400000a 	b	2890 <cs_channel_uses_cti+0xa4>
    286c:	b9402fa0 	ldr	w0, [x29,#44]
    2870:	11000400 	add	w0, w0, #0x1
    2874:	b9002fa0 	str	w0, [x29,#44]
    2878:	f94013a0 	ldr	x0, [x29,#32]
    287c:	b9400801 	ldr	w1, [x0,#8]
    2880:	b9402fa0 	ldr	w0, [x29,#44]
    2884:	6b00003f 	cmp	w1, w0
    2888:	54fffe08 	b.hi	2848 <cs_channel_uses_cti+0x5c>
    288c:	52800000 	mov	w0, #0x0                   	// #0
    2890:	a8c37bfd 	ldp	x29, x30, [sp],#48
    2894:	d65f03c0 	ret

0000000000002898 <cs_ect_add_cti>:
    2898:	a9be7bfd 	stp	x29, x30, [sp,#-32]!
    289c:	910003fd 	mov	x29, sp
    28a0:	f9000fa0 	str	x0, [x29,#24]
    28a4:	f9000ba1 	str	x1, [x29,#16]
    28a8:	f9400ba1 	ldr	x1, [x29,#16]
    28ac:	f9400fa0 	ldr	x0, [x29,#24]
    28b0:	97ffffcf 	bl	27ec <cs_channel_uses_cti>
    28b4:	7100001f 	cmp	w0, #0x0
    28b8:	54000060 	b.eq	28c4 <cs_ect_add_cti+0x2c>
    28bc:	52800000 	mov	w0, #0x0                   	// #0
    28c0:	14000012 	b	2908 <cs_ect_add_cti+0x70>
    28c4:	f9400fa0 	ldr	x0, [x29,#24]
    28c8:	b9400800 	ldr	w0, [x0,#8]
    28cc:	71003c1f 	cmp	w0, #0xf
    28d0:	54000061 	b.ne	28dc <cs_ect_add_cti+0x44>
    28d4:	12800000 	mov	w0, #0xffffffff            	// #-1
    28d8:	1400000c 	b	2908 <cs_ect_add_cti+0x70>
    28dc:	f9400fa0 	ldr	x0, [x29,#24]
    28e0:	b9400800 	ldr	w0, [x0,#8]
    28e4:	11000402 	add	w2, w0, #0x1
    28e8:	f9400fa1 	ldr	x1, [x29,#24]
    28ec:	b9000822 	str	w2, [x1,#8]
    28f0:	f9400fa1 	ldr	x1, [x29,#24]
    28f4:	2a0003e0 	mov	w0, w0
    28f8:	91010800 	add	x0, x0, #0x42
    28fc:	f9400ba2 	ldr	x2, [x29,#16]
    2900:	f8207822 	str	x2, [x1,x0,lsl #3]
    2904:	52800000 	mov	w0, #0x0                   	// #0
    2908:	a8c27bfd 	ldp	x29, x30, [sp],#32
    290c:	d65f03c0 	ret

0000000000002910 <cs_cti_used_global_channels>:
    2910:	a9bd7bfd 	stp	x29, x30, [sp,#-48]!
    2914:	910003fd 	mov	x29, sp
    2918:	f9000bf3 	str	x19, [sp,#16]
    291c:	f90017a0 	str	x0, [x29,#40]
    2920:	f94017a0 	ldr	x0, [x29,#40]
    2924:	940000c5 	bl	2c38 <cs_cti_used_channels>
    2928:	2a0003f3 	mov	w19, w0
    292c:	f94017a0 	ldr	x0, [x29,#40]
    2930:	97ffff7a 	bl	2718 <cs_cti_get_global_channels>
    2934:	0a000260 	and	w0, w19, w0
    2938:	f9400bf3 	ldr	x19, [sp,#16]
    293c:	a8c37bfd 	ldp	x29, x30, [sp],#48
    2940:	d65f03c0 	ret

0000000000002944 <cs_cti_unused_channels>:
    2944:	a9be7bfd 	stp	x29, x30, [sp,#-32]!
    2948:	910003fd 	mov	x29, sp
    294c:	f9000fa0 	str	x0, [x29,#24]
    2950:	f9400fa0 	ldr	x0, [x29,#24]
    2954:	940000b9 	bl	2c38 <cs_cti_used_channels>
    2958:	2a2003e0 	mvn	w0, w0
    295c:	12000c00 	and	w0, w0, #0xf
    2960:	a8c27bfd 	ldp	x29, x30, [sp],#32
    2964:	d65f03c0 	ret

0000000000002968 <cs_cti_enable>:
    2968:	a9bd7bfd 	stp	x29, x30, [sp,#-48]!
    296c:	910003fd 	mov	x29, sp
    2970:	f9000fa0 	str	x0, [x29,#24]
    2974:	f9400fa0 	ldr	x0, [x29,#24]
    2978:	97fffab1 	bl	143c <cs_get_device_struct>
    297c:	f90017a0 	str	x0, [x29,#40]
    2980:	f94017a0 	ldr	x0, [x29,#40]
    2984:	b9402400 	ldr	w0, [x0,#36]
    2988:	7100281f 	cmp	w0, #0xa
    298c:	54000160 	b.eq	29b8 <cs_cti_enable+0x50>
    2990:	90000160 	adrp	x0, 2e000 <__func__.5451+0x38>
    2994:	91052002 	add	x2, x0, #0x148
    2998:	90000160 	adrp	x0, 2e000 <__func__.5451+0x38>
    299c:	91180001 	add	x1, x0, #0x600
    29a0:	90000160 	adrp	x0, 2e000 <__func__.5451+0x38>
    29a4:	91058000 	add	x0, x0, #0x160
    29a8:	aa0203e3 	mov	x3, x2
    29ac:	aa0103e2 	mov	x2, x1
    29b0:	52800dc1 	mov	w1, #0x6e                  	// #110
    29b4:	94004cb1 	bl	15c78 <__assert_func>
    29b8:	52800022 	mov	w2, #0x1                   	// #1
    29bc:	52800001 	mov	w1, #0x0                   	// #0
    29c0:	f94017a0 	ldr	x0, [x29,#40]
    29c4:	97fffd11 	bl	1e08 <_cs_set>
    29c8:	a8c37bfd 	ldp	x29, x30, [sp],#48
    29cc:	d65f03c0 	ret

00000000000029d0 <cs_cti_disable>:
    29d0:	a9bd7bfd 	stp	x29, x30, [sp,#-48]!
    29d4:	910003fd 	mov	x29, sp
    29d8:	f9000fa0 	str	x0, [x29,#24]
    29dc:	f9400fa0 	ldr	x0, [x29,#24]
    29e0:	97fffa97 	bl	143c <cs_get_device_struct>
    29e4:	f90017a0 	str	x0, [x29,#40]
    29e8:	f94017a0 	ldr	x0, [x29,#40]
    29ec:	b9402400 	ldr	w0, [x0,#36]
    29f0:	7100281f 	cmp	w0, #0xa
    29f4:	54000160 	b.eq	2a20 <cs_cti_disable+0x50>
    29f8:	90000160 	adrp	x0, 2e000 <__func__.5451+0x38>
    29fc:	91052002 	add	x2, x0, #0x148
    2a00:	90000160 	adrp	x0, 2e000 <__func__.5451+0x38>
    2a04:	91184001 	add	x1, x0, #0x610
    2a08:	90000160 	adrp	x0, 2e000 <__func__.5451+0x38>
    2a0c:	91058000 	add	x0, x0, #0x160
    2a10:	aa0203e3 	mov	x3, x2
    2a14:	aa0103e2 	mov	x2, x1
    2a18:	52800ea1 	mov	w1, #0x75                  	// #117
    2a1c:	94004c97 	bl	15c78 <__assert_func>
    2a20:	52800022 	mov	w2, #0x1                   	// #1
    2a24:	52800001 	mov	w1, #0x0                   	// #0
    2a28:	f94017a0 	ldr	x0, [x29,#40]
    2a2c:	97fffd14 	bl	1e7c <_cs_clear>
    2a30:	a8c37bfd 	ldp	x29, x30, [sp],#48
    2a34:	d65f03c0 	ret

0000000000002a38 <cs_cti_set_trigin_channels>:
    2a38:	a9bd7bfd 	stp	x29, x30, [sp,#-48]!
    2a3c:	910003fd 	mov	x29, sp
    2a40:	f9000fa0 	str	x0, [x29,#24]
    2a44:	b90017a1 	str	w1, [x29,#20]
    2a48:	b90013a2 	str	w2, [x29,#16]
    2a4c:	f9400fa0 	ldr	x0, [x29,#24]
    2a50:	97fffa7b 	bl	143c <cs_get_device_struct>
    2a54:	f90017a0 	str	x0, [x29,#40]
    2a58:	f94017a0 	ldr	x0, [x29,#40]
    2a5c:	b9402400 	ldr	w0, [x0,#36]
    2a60:	7100281f 	cmp	w0, #0xa
    2a64:	54000160 	b.eq	2a90 <cs_cti_set_trigin_channels+0x58>
    2a68:	90000160 	adrp	x0, 2e000 <__func__.5451+0x38>
    2a6c:	91052002 	add	x2, x0, #0x148
    2a70:	90000160 	adrp	x0, 2e000 <__func__.5451+0x38>
    2a74:	91188001 	add	x1, x0, #0x620
    2a78:	90000160 	adrp	x0, 2e000 <__func__.5451+0x38>
    2a7c:	91058000 	add	x0, x0, #0x160
    2a80:	aa0203e3 	mov	x3, x2
    2a84:	aa0103e2 	mov	x2, x1
    2a88:	52800fa1 	mov	w1, #0x7d                  	// #125
    2a8c:	94004c7b 	bl	15c78 <__assert_func>
    2a90:	b94017a0 	ldr	w0, [x29,#20]
    2a94:	7100281f 	cmp	w0, #0xa
    2a98:	54000169 	b.ls	2ac4 <cs_cti_set_trigin_channels+0x8c>
    2a9c:	90000160 	adrp	x0, 2e000 <__func__.5451+0x38>
    2aa0:	9106a002 	add	x2, x0, #0x1a8
    2aa4:	90000160 	adrp	x0, 2e000 <__func__.5451+0x38>
    2aa8:	91188001 	add	x1, x0, #0x620
    2aac:	90000160 	adrp	x0, 2e000 <__func__.5451+0x38>
    2ab0:	91058000 	add	x0, x0, #0x160
    2ab4:	aa0203e3 	mov	x3, x2
    2ab8:	aa0103e2 	mov	x2, x1
    2abc:	52800fc1 	mov	w1, #0x7e                  	// #126
    2ac0:	94004c6e 	bl	15c78 <__assert_func>
    2ac4:	f94017a0 	ldr	x0, [x29,#40]
    2ac8:	97fffe94 	bl	2518 <_cs_unlock>
    2acc:	b94017a0 	ldr	w0, [x29,#20]
    2ad0:	11002000 	add	w0, w0, #0x8
    2ad4:	531e7401 	lsl	w1, w0, #2
    2ad8:	90000160 	adrp	x0, 2e000 <__func__.5451+0x38>
    2adc:	91072000 	add	x0, x0, #0x1c8
    2ae0:	aa0003e3 	mov	x3, x0
    2ae4:	b94013a2 	ldr	w2, [x29,#16]
    2ae8:	f94017a0 	ldr	x0, [x29,#40]
    2aec:	97fffba5 	bl	1980 <_cs_write_traced>
    2af0:	a8c37bfd 	ldp	x29, x30, [sp],#48
    2af4:	d65f03c0 	ret

0000000000002af8 <cs_cti_set_trigout_channels>:
    2af8:	a9bd7bfd 	stp	x29, x30, [sp,#-48]!
    2afc:	910003fd 	mov	x29, sp
    2b00:	f9000fa0 	str	x0, [x29,#24]
    2b04:	b90017a1 	str	w1, [x29,#20]
    2b08:	b90013a2 	str	w2, [x29,#16]
    2b0c:	f9400fa0 	ldr	x0, [x29,#24]
    2b10:	97fffa4b 	bl	143c <cs_get_device_struct>
    2b14:	f90017a0 	str	x0, [x29,#40]
    2b18:	f94017a0 	ldr	x0, [x29,#40]
    2b1c:	b9402400 	ldr	w0, [x0,#36]
    2b20:	7100281f 	cmp	w0, #0xa
    2b24:	54000160 	b.eq	2b50 <cs_cti_set_trigout_channels+0x58>
    2b28:	90000160 	adrp	x0, 2e000 <__func__.5451+0x38>
    2b2c:	91052002 	add	x2, x0, #0x148
    2b30:	90000160 	adrp	x0, 2e000 <__func__.5451+0x38>
    2b34:	91190001 	add	x1, x0, #0x640
    2b38:	90000160 	adrp	x0, 2e000 <__func__.5451+0x38>
    2b3c:	91058000 	add	x0, x0, #0x160
    2b40:	aa0203e3 	mov	x3, x2
    2b44:	aa0103e2 	mov	x2, x1
    2b48:	52801101 	mov	w1, #0x88                  	// #136
    2b4c:	94004c4b 	bl	15c78 <__assert_func>
    2b50:	b94017a0 	ldr	w0, [x29,#20]
    2b54:	7100281f 	cmp	w0, #0xa
    2b58:	54000169 	b.ls	2b84 <cs_cti_set_trigout_channels+0x8c>
    2b5c:	90000160 	adrp	x0, 2e000 <__func__.5451+0x38>
    2b60:	91078002 	add	x2, x0, #0x1e0
    2b64:	90000160 	adrp	x0, 2e000 <__func__.5451+0x38>
    2b68:	91190001 	add	x1, x0, #0x640
    2b6c:	90000160 	adrp	x0, 2e000 <__func__.5451+0x38>
    2b70:	91058000 	add	x0, x0, #0x160
    2b74:	aa0203e3 	mov	x3, x2
    2b78:	aa0103e2 	mov	x2, x1
    2b7c:	52801121 	mov	w1, #0x89                  	// #137
    2b80:	94004c3e 	bl	15c78 <__assert_func>
    2b84:	f94017a0 	ldr	x0, [x29,#40]
    2b88:	97fffe64 	bl	2518 <_cs_unlock>
    2b8c:	b94017a0 	ldr	w0, [x29,#20]
    2b90:	1100a000 	add	w0, w0, #0x28
    2b94:	531e7401 	lsl	w1, w0, #2
    2b98:	90000160 	adrp	x0, 2e000 <__func__.5451+0x38>
    2b9c:	91080000 	add	x0, x0, #0x200
    2ba0:	aa0003e3 	mov	x3, x0
    2ba4:	b94013a2 	ldr	w2, [x29,#16]
    2ba8:	f94017a0 	ldr	x0, [x29,#40]
    2bac:	97fffb75 	bl	1980 <_cs_write_traced>
    2bb0:	a8c37bfd 	ldp	x29, x30, [sp],#48
    2bb4:	d65f03c0 	ret

0000000000002bb8 <cs_cti_set_global_channels>:
    2bb8:	a9bd7bfd 	stp	x29, x30, [sp,#-48]!
    2bbc:	910003fd 	mov	x29, sp
    2bc0:	f9000fa0 	str	x0, [x29,#24]
    2bc4:	b90017a1 	str	w1, [x29,#20]
    2bc8:	f9400fa0 	ldr	x0, [x29,#24]
    2bcc:	97fffa1c 	bl	143c <cs_get_device_struct>
    2bd0:	f90017a0 	str	x0, [x29,#40]
    2bd4:	f94017a0 	ldr	x0, [x29,#40]
    2bd8:	b9402400 	ldr	w0, [x0,#36]
    2bdc:	7100281f 	cmp	w0, #0xa
    2be0:	54000160 	b.eq	2c0c <cs_cti_set_global_channels+0x54>
    2be4:	90000160 	adrp	x0, 2e000 <__func__.5451+0x38>
    2be8:	91052002 	add	x2, x0, #0x148
    2bec:	90000160 	adrp	x0, 2e000 <__func__.5451+0x38>
    2bf0:	91198001 	add	x1, x0, #0x660
    2bf4:	90000160 	adrp	x0, 2e000 <__func__.5451+0x38>
    2bf8:	91058000 	add	x0, x0, #0x160
    2bfc:	aa0203e3 	mov	x3, x2
    2c00:	aa0103e2 	mov	x2, x1
    2c04:	52801241 	mov	w1, #0x92                  	// #146
    2c08:	94004c1c 	bl	15c78 <__assert_func>
    2c0c:	f94017a0 	ldr	x0, [x29,#40]
    2c10:	97fffe42 	bl	2518 <_cs_unlock>
    2c14:	90000160 	adrp	x0, 2e000 <__func__.5451+0x38>
    2c18:	91086000 	add	x0, x0, #0x218
    2c1c:	aa0003e3 	mov	x3, x0
    2c20:	b94017a2 	ldr	w2, [x29,#20]
    2c24:	52802801 	mov	w1, #0x140                 	// #320
    2c28:	f94017a0 	ldr	x0, [x29,#40]
    2c2c:	97fffb55 	bl	1980 <_cs_write_traced>
    2c30:	a8c37bfd 	ldp	x29, x30, [sp],#48
    2c34:	d65f03c0 	ret

0000000000002c38 <cs_cti_used_channels>:
    2c38:	a9bd7bfd 	stp	x29, x30, [sp,#-48]!
    2c3c:	910003fd 	mov	x29, sp
    2c40:	f9000fa0 	str	x0, [x29,#24]
    2c44:	f9400fa0 	ldr	x0, [x29,#24]
    2c48:	97fff9fd 	bl	143c <cs_get_device_struct>
    2c4c:	f90013a0 	str	x0, [x29,#32]
    2c50:	b9002bbf 	str	wzr, [x29,#40]
    2c54:	f94013a0 	ldr	x0, [x29,#32]
    2c58:	b9402400 	ldr	w0, [x0,#36]
    2c5c:	7100281f 	cmp	w0, #0xa
    2c60:	54000160 	b.eq	2c8c <cs_cti_used_channels+0x54>
    2c64:	90000160 	adrp	x0, 2e000 <__func__.5451+0x38>
    2c68:	91052002 	add	x2, x0, #0x148
    2c6c:	90000160 	adrp	x0, 2e000 <__func__.5451+0x38>
    2c70:	911a0001 	add	x1, x0, #0x680
    2c74:	90000160 	adrp	x0, 2e000 <__func__.5451+0x38>
    2c78:	91058000 	add	x0, x0, #0x160
    2c7c:	aa0203e3 	mov	x3, x2
    2c80:	aa0103e2 	mov	x2, x1
    2c84:	52801461 	mov	w1, #0xa3                  	// #163
    2c88:	94004bfc 	bl	15c78 <__assert_func>
    2c8c:	b9002fbf 	str	wzr, [x29,#44]
    2c90:	1400000e 	b	2cc8 <cs_cti_used_channels+0x90>
    2c94:	b9402fa0 	ldr	w0, [x29,#44]
    2c98:	11002000 	add	w0, w0, #0x8
    2c9c:	531e7400 	lsl	w0, w0, #2
    2ca0:	2a0003e1 	mov	w1, w0
    2ca4:	f94013a0 	ldr	x0, [x29,#32]
    2ca8:	97fffa60 	bl	1628 <_cs_read>
    2cac:	2a0003e1 	mov	w1, w0
    2cb0:	b9402ba0 	ldr	w0, [x29,#40]
    2cb4:	2a010000 	orr	w0, w0, w1
    2cb8:	b9002ba0 	str	w0, [x29,#40]
    2cbc:	b9402fa0 	ldr	w0, [x29,#44]
    2cc0:	11000400 	add	w0, w0, #0x1
    2cc4:	b9002fa0 	str	w0, [x29,#44]
    2cc8:	f94013a0 	ldr	x0, [x29,#32]
    2ccc:	39438000 	ldrb	w0, [x0,#224]
    2cd0:	2a0003e1 	mov	w1, w0
    2cd4:	b9402fa0 	ldr	w0, [x29,#44]
    2cd8:	6b00003f 	cmp	w1, w0
    2cdc:	54fffdc8 	b.hi	2c94 <cs_cti_used_channels+0x5c>
    2ce0:	b9002fbf 	str	wzr, [x29,#44]
    2ce4:	1400000e 	b	2d1c <cs_cti_used_channels+0xe4>
    2ce8:	b9402fa0 	ldr	w0, [x29,#44]
    2cec:	1100a000 	add	w0, w0, #0x28
    2cf0:	531e7400 	lsl	w0, w0, #2
    2cf4:	2a0003e1 	mov	w1, w0
    2cf8:	f94013a0 	ldr	x0, [x29,#32]
    2cfc:	97fffa4b 	bl	1628 <_cs_read>
    2d00:	2a0003e1 	mov	w1, w0
    2d04:	b9402ba0 	ldr	w0, [x29,#40]
    2d08:	2a010000 	orr	w0, w0, w1
    2d0c:	b9002ba0 	str	w0, [x29,#40]
    2d10:	b9402fa0 	ldr	w0, [x29,#44]
    2d14:	11000400 	add	w0, w0, #0x1
    2d18:	b9002fa0 	str	w0, [x29,#44]
    2d1c:	f94013a0 	ldr	x0, [x29,#32]
    2d20:	39438000 	ldrb	w0, [x0,#224]
    2d24:	2a0003e1 	mov	w1, w0
    2d28:	b9402fa0 	ldr	w0, [x29,#44]
    2d2c:	6b00003f 	cmp	w1, w0
    2d30:	54fffdc8 	b.hi	2ce8 <cs_cti_used_channels+0xb0>
    2d34:	b9402ba0 	ldr	w0, [x29,#40]
    2d38:	a8c37bfd 	ldp	x29, x30, [sp],#48
    2d3c:	d65f03c0 	ret

0000000000002d40 <cs_cti_pulse_channel>:
    2d40:	a9bd7bfd 	stp	x29, x30, [sp,#-48]!
    2d44:	910003fd 	mov	x29, sp
    2d48:	f9000fa0 	str	x0, [x29,#24]
    2d4c:	b90017a1 	str	w1, [x29,#20]
    2d50:	f9400fa0 	ldr	x0, [x29,#24]
    2d54:	97fff9ba 	bl	143c <cs_get_device_struct>
    2d58:	f90017a0 	str	x0, [x29,#40]
    2d5c:	f94017a0 	ldr	x0, [x29,#40]
    2d60:	b9402400 	ldr	w0, [x0,#36]
    2d64:	7100281f 	cmp	w0, #0xa
    2d68:	54000160 	b.eq	2d94 <cs_cti_pulse_channel+0x54>
    2d6c:	90000160 	adrp	x0, 2e000 <__func__.5451+0x38>
    2d70:	91052002 	add	x2, x0, #0x148
    2d74:	90000160 	adrp	x0, 2e000 <__func__.5451+0x38>
    2d78:	911a6001 	add	x1, x0, #0x698
    2d7c:	90000160 	adrp	x0, 2e000 <__func__.5451+0x38>
    2d80:	91058000 	add	x0, x0, #0x160
    2d84:	aa0203e3 	mov	x3, x2
    2d88:	aa0103e2 	mov	x2, x1
    2d8c:	52801601 	mov	w1, #0xb0                  	// #176
    2d90:	94004bba 	bl	15c78 <__assert_func>
    2d94:	f94017a0 	ldr	x0, [x29,#40]
    2d98:	39438400 	ldrb	w0, [x0,#225]
    2d9c:	2a0003e1 	mov	w1, w0
    2da0:	b94017a0 	ldr	w0, [x29,#20]
    2da4:	6b00003f 	cmp	w1, w0
    2da8:	54000168 	b.hi	2dd4 <cs_cti_pulse_channel+0x94>
    2dac:	90000160 	adrp	x0, 2e000 <__func__.5451+0x38>
    2db0:	9108a002 	add	x2, x0, #0x228
    2db4:	90000160 	adrp	x0, 2e000 <__func__.5451+0x38>
    2db8:	911a6001 	add	x1, x0, #0x698
    2dbc:	90000160 	adrp	x0, 2e000 <__func__.5451+0x38>
    2dc0:	91058000 	add	x0, x0, #0x160
    2dc4:	aa0203e3 	mov	x3, x2
    2dc8:	aa0103e2 	mov	x2, x1
    2dcc:	52801621 	mov	w1, #0xb1                  	// #177
    2dd0:	94004baa 	bl	15c78 <__assert_func>
    2dd4:	f94017a0 	ldr	x0, [x29,#40]
    2dd8:	97fffdd0 	bl	2518 <_cs_unlock>
    2ddc:	b94017a0 	ldr	w0, [x29,#20]
    2de0:	52800021 	mov	w1, #0x1                   	// #1
    2de4:	1ac02020 	lsl	w0, w1, w0
    2de8:	2a0003e2 	mov	w2, w0
    2dec:	52800381 	mov	w1, #0x1c                  	// #28
    2df0:	f94017a0 	ldr	x0, [x29,#40]
    2df4:	97fffa75 	bl	17c8 <_cs_write_wo>
    2df8:	a8c37bfd 	ldp	x29, x30, [sp],#48
    2dfc:	d65f03c0 	ret

0000000000002e00 <cs_cti_set_active_channel>:
    2e00:	a9bd7bfd 	stp	x29, x30, [sp,#-48]!
    2e04:	910003fd 	mov	x29, sp
    2e08:	f9000fa0 	str	x0, [x29,#24]
    2e0c:	b90017a1 	str	w1, [x29,#20]
    2e10:	f9400fa0 	ldr	x0, [x29,#24]
    2e14:	97fff98a 	bl	143c <cs_get_device_struct>
    2e18:	f90017a0 	str	x0, [x29,#40]
    2e1c:	f94017a0 	ldr	x0, [x29,#40]
    2e20:	b9402400 	ldr	w0, [x0,#36]
    2e24:	7100281f 	cmp	w0, #0xa
    2e28:	54000160 	b.eq	2e54 <cs_cti_set_active_channel+0x54>
    2e2c:	90000160 	adrp	x0, 2e000 <__func__.5451+0x38>
    2e30:	91052002 	add	x2, x0, #0x148
    2e34:	90000160 	adrp	x0, 2e000 <__func__.5451+0x38>
    2e38:	911ac001 	add	x1, x0, #0x6b0
    2e3c:	90000160 	adrp	x0, 2e000 <__func__.5451+0x38>
    2e40:	91058000 	add	x0, x0, #0x160
    2e44:	aa0203e3 	mov	x3, x2
    2e48:	aa0103e2 	mov	x2, x1
    2e4c:	52801741 	mov	w1, #0xba                  	// #186
    2e50:	94004b8a 	bl	15c78 <__assert_func>
    2e54:	f94017a0 	ldr	x0, [x29,#40]
    2e58:	39438400 	ldrb	w0, [x0,#225]
    2e5c:	2a0003e1 	mov	w1, w0
    2e60:	b94017a0 	ldr	w0, [x29,#20]
    2e64:	6b00003f 	cmp	w1, w0
    2e68:	54000168 	b.hi	2e94 <cs_cti_set_active_channel+0x94>
    2e6c:	90000160 	adrp	x0, 2e000 <__func__.5451+0x38>
    2e70:	9108a002 	add	x2, x0, #0x228
    2e74:	90000160 	adrp	x0, 2e000 <__func__.5451+0x38>
    2e78:	911ac001 	add	x1, x0, #0x6b0
    2e7c:	90000160 	adrp	x0, 2e000 <__func__.5451+0x38>
    2e80:	91058000 	add	x0, x0, #0x160
    2e84:	aa0203e3 	mov	x3, x2
    2e88:	aa0103e2 	mov	x2, x1
    2e8c:	52801761 	mov	w1, #0xbb                  	// #187
    2e90:	94004b7a 	bl	15c78 <__assert_func>
    2e94:	f94017a0 	ldr	x0, [x29,#40]
    2e98:	97fffda0 	bl	2518 <_cs_unlock>
    2e9c:	b94017a0 	ldr	w0, [x29,#20]
    2ea0:	52800021 	mov	w1, #0x1                   	// #1
    2ea4:	1ac02020 	lsl	w0, w1, w0
    2ea8:	2a0003e2 	mov	w2, w0
    2eac:	52800281 	mov	w1, #0x14                  	// #20
    2eb0:	f94017a0 	ldr	x0, [x29,#40]
    2eb4:	97fffbd5 	bl	1e08 <_cs_set>
    2eb8:	a8c37bfd 	ldp	x29, x30, [sp],#48
    2ebc:	d65f03c0 	ret

0000000000002ec0 <cs_cti_clear_active_channel>:
    2ec0:	a9bd7bfd 	stp	x29, x30, [sp,#-48]!
    2ec4:	910003fd 	mov	x29, sp
    2ec8:	f9000fa0 	str	x0, [x29,#24]
    2ecc:	b90017a1 	str	w1, [x29,#20]
    2ed0:	f9400fa0 	ldr	x0, [x29,#24]
    2ed4:	97fff95a 	bl	143c <cs_get_device_struct>
    2ed8:	f90017a0 	str	x0, [x29,#40]
    2edc:	f94017a0 	ldr	x0, [x29,#40]
    2ee0:	b9402400 	ldr	w0, [x0,#36]
    2ee4:	7100281f 	cmp	w0, #0xa
    2ee8:	54000160 	b.eq	2f14 <cs_cti_clear_active_channel+0x54>
    2eec:	90000160 	adrp	x0, 2e000 <__func__.5451+0x38>
    2ef0:	91052002 	add	x2, x0, #0x148
    2ef4:	90000160 	adrp	x0, 2e000 <__func__.5451+0x38>
    2ef8:	911b4001 	add	x1, x0, #0x6d0
    2efc:	90000160 	adrp	x0, 2e000 <__func__.5451+0x38>
    2f00:	91058000 	add	x0, x0, #0x160
    2f04:	aa0203e3 	mov	x3, x2
    2f08:	aa0103e2 	mov	x2, x1
    2f0c:	52801881 	mov	w1, #0xc4                  	// #196
    2f10:	94004b5a 	bl	15c78 <__assert_func>
    2f14:	f94017a0 	ldr	x0, [x29,#40]
    2f18:	39438400 	ldrb	w0, [x0,#225]
    2f1c:	2a0003e1 	mov	w1, w0
    2f20:	b94017a0 	ldr	w0, [x29,#20]
    2f24:	6b00003f 	cmp	w1, w0
    2f28:	54000168 	b.hi	2f54 <cs_cti_clear_active_channel+0x94>
    2f2c:	90000160 	adrp	x0, 2e000 <__func__.5451+0x38>
    2f30:	9108a002 	add	x2, x0, #0x228
    2f34:	90000160 	adrp	x0, 2e000 <__func__.5451+0x38>
    2f38:	911b4001 	add	x1, x0, #0x6d0
    2f3c:	90000160 	adrp	x0, 2e000 <__func__.5451+0x38>
    2f40:	91058000 	add	x0, x0, #0x160
    2f44:	aa0203e3 	mov	x3, x2
    2f48:	aa0103e2 	mov	x2, x1
    2f4c:	528018a1 	mov	w1, #0xc5                  	// #197
    2f50:	94004b4a 	bl	15c78 <__assert_func>
    2f54:	f94017a0 	ldr	x0, [x29,#40]
    2f58:	97fffd70 	bl	2518 <_cs_unlock>
    2f5c:	b94017a0 	ldr	w0, [x29,#20]
    2f60:	52800021 	mov	w1, #0x1                   	// #1
    2f64:	1ac02020 	lsl	w0, w1, w0
    2f68:	2a0003e2 	mov	w2, w0
    2f6c:	52800301 	mov	w1, #0x18                  	// #24
    2f70:	f94017a0 	ldr	x0, [x29,#40]
    2f74:	97fffba5 	bl	1e08 <_cs_set>
    2f78:	a8c37bfd 	ldp	x29, x30, [sp],#48
    2f7c:	d65f03c0 	ret

0000000000002f80 <cs_cti_clear_all_active_channels>:
    2f80:	a9bd7bfd 	stp	x29, x30, [sp,#-48]!
    2f84:	910003fd 	mov	x29, sp
    2f88:	f9000fa0 	str	x0, [x29,#24]
    2f8c:	b9002fbf 	str	wzr, [x29,#44]
    2f90:	f9400fa0 	ldr	x0, [x29,#24]
    2f94:	97fff92a 	bl	143c <cs_get_device_struct>
    2f98:	f90013a0 	str	x0, [x29,#32]
    2f9c:	f94013a0 	ldr	x0, [x29,#32]
    2fa0:	b9402400 	ldr	w0, [x0,#36]
    2fa4:	7100281f 	cmp	w0, #0xa
    2fa8:	54000160 	b.eq	2fd4 <cs_cti_clear_all_active_channels+0x54>
    2fac:	90000160 	adrp	x0, 2e000 <__func__.5451+0x38>
    2fb0:	91052002 	add	x2, x0, #0x148
    2fb4:	90000160 	adrp	x0, 2e000 <__func__.5451+0x38>
    2fb8:	911bc001 	add	x1, x0, #0x6f0
    2fbc:	90000160 	adrp	x0, 2e000 <__func__.5451+0x38>
    2fc0:	91058000 	add	x0, x0, #0x160
    2fc4:	aa0203e3 	mov	x3, x2
    2fc8:	aa0103e2 	mov	x2, x1
    2fcc:	52801a01 	mov	w1, #0xd0                  	// #208
    2fd0:	94004b2a 	bl	15c78 <__assert_func>
    2fd4:	f94013a0 	ldr	x0, [x29,#32]
    2fd8:	97fffd50 	bl	2518 <_cs_unlock>
    2fdc:	f94013a0 	ldr	x0, [x29,#32]
    2fe0:	39438400 	ldrb	w0, [x0,#225]
    2fe4:	2a0003e1 	mov	w1, w0
    2fe8:	52800020 	mov	w0, #0x1                   	// #1
    2fec:	1ac12000 	lsl	w0, w0, w1
    2ff0:	51000400 	sub	w0, w0, #0x1
    2ff4:	b9002fa0 	str	w0, [x29,#44]
    2ff8:	b9402fa2 	ldr	w2, [x29,#44]
    2ffc:	52800301 	mov	w1, #0x18                  	// #24
    3000:	f94013a0 	ldr	x0, [x29,#32]
    3004:	97fffb81 	bl	1e08 <_cs_set>
    3008:	a8c37bfd 	ldp	x29, x30, [sp],#48
    300c:	d65f03c0 	ret

0000000000003010 <cs_cti_trigin_status>:
    3010:	a9bd7bfd 	stp	x29, x30, [sp,#-48]!
    3014:	910003fd 	mov	x29, sp
    3018:	f9000fa0 	str	x0, [x29,#24]
    301c:	f9400fa0 	ldr	x0, [x29,#24]
    3020:	97fff907 	bl	143c <cs_get_device_struct>
    3024:	f90017a0 	str	x0, [x29,#40]
    3028:	f94017a0 	ldr	x0, [x29,#40]
    302c:	b9402400 	ldr	w0, [x0,#36]
    3030:	7100281f 	cmp	w0, #0xa
    3034:	54000160 	b.eq	3060 <cs_cti_trigin_status+0x50>
    3038:	f0000140 	adrp	x0, 2e000 <__func__.5451+0x38>
    303c:	91052002 	add	x2, x0, #0x148
    3040:	f0000140 	adrp	x0, 2e000 <__func__.5451+0x38>
    3044:	911c6001 	add	x1, x0, #0x718
    3048:	f0000140 	adrp	x0, 2e000 <__func__.5451+0x38>
    304c:	91058000 	add	x0, x0, #0x160
    3050:	aa0203e3 	mov	x3, x2
    3054:	aa0103e2 	mov	x2, x1
    3058:	52801b41 	mov	w1, #0xda                  	// #218
    305c:	94004b07 	bl	15c78 <__assert_func>
    3060:	f94017a0 	ldr	x0, [x29,#40]
    3064:	97fffd2d 	bl	2518 <_cs_unlock>
    3068:	52802601 	mov	w1, #0x130                 	// #304
    306c:	f94017a0 	ldr	x0, [x29,#40]
    3070:	97fff96e 	bl	1628 <_cs_read>
    3074:	a8c37bfd 	ldp	x29, x30, [sp],#48
    3078:	d65f03c0 	ret

000000000000307c <cs_cti_trigout_status>:
    307c:	a9bd7bfd 	stp	x29, x30, [sp,#-48]!
    3080:	910003fd 	mov	x29, sp
    3084:	f9000fa0 	str	x0, [x29,#24]
    3088:	f9400fa0 	ldr	x0, [x29,#24]
    308c:	97fff8ec 	bl	143c <cs_get_device_struct>
    3090:	f90017a0 	str	x0, [x29,#40]
    3094:	f94017a0 	ldr	x0, [x29,#40]
    3098:	b9402400 	ldr	w0, [x0,#36]
    309c:	7100281f 	cmp	w0, #0xa
    30a0:	54000160 	b.eq	30cc <cs_cti_trigout_status+0x50>
    30a4:	f0000140 	adrp	x0, 2e000 <__func__.5451+0x38>
    30a8:	91052002 	add	x2, x0, #0x148
    30ac:	f0000140 	adrp	x0, 2e000 <__func__.5451+0x38>
    30b0:	911cc001 	add	x1, x0, #0x730
    30b4:	f0000140 	adrp	x0, 2e000 <__func__.5451+0x38>
    30b8:	91058000 	add	x0, x0, #0x160
    30bc:	aa0203e3 	mov	x3, x2
    30c0:	aa0103e2 	mov	x2, x1
    30c4:	52801c61 	mov	w1, #0xe3                  	// #227
    30c8:	94004aec 	bl	15c78 <__assert_func>
    30cc:	f94017a0 	ldr	x0, [x29,#40]
    30d0:	97fffd12 	bl	2518 <_cs_unlock>
    30d4:	52802681 	mov	w1, #0x134                 	// #308
    30d8:	f94017a0 	ldr	x0, [x29,#40]
    30dc:	97fff953 	bl	1628 <_cs_read>
    30e0:	a8c37bfd 	ldp	x29, x30, [sp],#48
    30e4:	d65f03c0 	ret

00000000000030e8 <cs_cti_reset>:
    30e8:	a9bc7bfd 	stp	x29, x30, [sp,#-64]!
    30ec:	910003fd 	mov	x29, sp
    30f0:	f9000fa0 	str	x0, [x29,#24]
    30f4:	f9400fa0 	ldr	x0, [x29,#24]
    30f8:	97fff8d1 	bl	143c <cs_get_device_struct>
    30fc:	f9001ba0 	str	x0, [x29,#48]
    3100:	f9401ba0 	ldr	x0, [x29,#48]
    3104:	b9402400 	ldr	w0, [x0,#36]
    3108:	7100281f 	cmp	w0, #0xa
    310c:	54000160 	b.eq	3138 <cs_cti_reset+0x50>
    3110:	f0000140 	adrp	x0, 2e000 <__func__.5451+0x38>
    3114:	91052002 	add	x2, x0, #0x148
    3118:	f0000140 	adrp	x0, 2e000 <__func__.5451+0x38>
    311c:	911d2001 	add	x1, x0, #0x748
    3120:	f0000140 	adrp	x0, 2e000 <__func__.5451+0x38>
    3124:	91058000 	add	x0, x0, #0x160
    3128:	aa0203e3 	mov	x3, x2
    312c:	aa0103e2 	mov	x2, x1
    3130:	52801dc1 	mov	w1, #0xee                  	// #238
    3134:	94004ad1 	bl	15c78 <__assert_func>
    3138:	f9401ba0 	ldr	x0, [x29,#48]
    313c:	97fffcf7 	bl	2518 <_cs_unlock>
    3140:	52800022 	mov	w2, #0x1                   	// #1
    3144:	52800001 	mov	w1, #0x0                   	// #0
    3148:	f9401ba0 	ldr	x0, [x29,#48]
    314c:	97fffb4c 	bl	1e7c <_cs_clear>
    3150:	b9002fa0 	str	w0, [x29,#44]
    3154:	b9402fa0 	ldr	w0, [x29,#44]
    3158:	7100001f 	cmp	w0, #0x0
    315c:	54000060 	b.eq	3168 <cs_cti_reset+0x80>
    3160:	b9402fa0 	ldr	w0, [x29,#44]
    3164:	14000032 	b	322c <cs_cti_reset+0x144>
    3168:	b9003fbf 	str	wzr, [x29,#60]
    316c:	1400000e 	b	31a4 <cs_cti_reset+0xbc>
    3170:	b9403fa0 	ldr	w0, [x29,#60]
    3174:	11002000 	add	w0, w0, #0x8
    3178:	531e7400 	lsl	w0, w0, #2
    317c:	2a0003e1 	mov	w1, w0
    3180:	f0000140 	adrp	x0, 2e000 <__func__.5451+0x38>
    3184:	91092000 	add	x0, x0, #0x248
    3188:	aa0003e3 	mov	x3, x0
    318c:	52800002 	mov	w2, #0x0                   	// #0
    3190:	f9401ba0 	ldr	x0, [x29,#48]
    3194:	97fff9fb 	bl	1980 <_cs_write_traced>
    3198:	b9403fa0 	ldr	w0, [x29,#60]
    319c:	11000400 	add	w0, w0, #0x1
    31a0:	b9003fa0 	str	w0, [x29,#60]
    31a4:	f9401ba0 	ldr	x0, [x29,#48]
    31a8:	39438000 	ldrb	w0, [x0,#224]
    31ac:	2a0003e1 	mov	w1, w0
    31b0:	b9403fa0 	ldr	w0, [x29,#60]
    31b4:	6b00003f 	cmp	w1, w0
    31b8:	54fffdcc 	b.gt	3170 <cs_cti_reset+0x88>
    31bc:	b9003fbf 	str	wzr, [x29,#60]
    31c0:	1400000e 	b	31f8 <cs_cti_reset+0x110>
    31c4:	b9403fa0 	ldr	w0, [x29,#60]
    31c8:	1100a000 	add	w0, w0, #0x28
    31cc:	531e7400 	lsl	w0, w0, #2
    31d0:	2a0003e1 	mov	w1, w0
    31d4:	f0000140 	adrp	x0, 2e000 <__func__.5451+0x38>
    31d8:	91096000 	add	x0, x0, #0x258
    31dc:	aa0003e3 	mov	x3, x0
    31e0:	52800002 	mov	w2, #0x0                   	// #0
    31e4:	f9401ba0 	ldr	x0, [x29,#48]
    31e8:	97fff9e6 	bl	1980 <_cs_write_traced>
    31ec:	b9403fa0 	ldr	w0, [x29,#60]
    31f0:	11000400 	add	w0, w0, #0x1
    31f4:	b9003fa0 	str	w0, [x29,#60]
    31f8:	f9401ba0 	ldr	x0, [x29,#48]
    31fc:	39438000 	ldrb	w0, [x0,#224]
    3200:	2a0003e1 	mov	w1, w0
    3204:	b9403fa0 	ldr	w0, [x29,#60]
    3208:	6b00003f 	cmp	w1, w0
    320c:	54fffdcc 	b.gt	31c4 <cs_cti_reset+0xdc>
    3210:	f0000140 	adrp	x0, 2e000 <__func__.5451+0x38>
    3214:	91086000 	add	x0, x0, #0x218
    3218:	aa0003e3 	mov	x3, x0
    321c:	528001e2 	mov	w2, #0xf                   	// #15
    3220:	52802801 	mov	w1, #0x140                 	// #320
    3224:	f9401ba0 	ldr	x0, [x29,#48]
    3228:	97fff9d6 	bl	1980 <_cs_write_traced>
    322c:	a8c47bfd 	ldp	x29, x30, [sp],#64
    3230:	d65f03c0 	ret

0000000000003234 <cs_cti_diag>:
    3234:	a9ba7bfd 	stp	x29, x30, [sp,#-96]!
    3238:	910003fd 	mov	x29, sp
    323c:	f00001c0 	adrp	x0, 3e000 <__exidx_end>
    3240:	910a8000 	add	x0, x0, #0x2a0
    3244:	f9400000 	ldr	x0, [x0]
    3248:	f9002fa0 	str	x0, [x29,#88]
    324c:	1400019e 	b	38c4 <cs_cti_diag+0x690>
    3250:	f9402fa0 	ldr	x0, [x29,#88]
    3254:	b9402400 	ldr	w0, [x0,#36]
    3258:	7100281f 	cmp	w0, #0xa
    325c:	540032c1 	b.ne	38b4 <cs_cti_diag+0x680>
    3260:	f9402fa0 	ldr	x0, [x29,#88]
    3264:	f9400801 	ldr	x1, [x0,#16]
    3268:	f0000140 	adrp	x0, 2e000 <__func__.5451+0x38>
    326c:	9109a000 	add	x0, x0, #0x268
    3270:	97fff732 	bl	f38 <_diagf>
    3274:	f9402fa0 	ldr	x0, [x29,#88]
    3278:	b9403400 	ldr	w0, [x0,#52]
    327c:	3100041f 	cmn	w0, #0x1
    3280:	54000140 	b.eq	32a8 <cs_cti_diag+0x74>
    3284:	f9402fa0 	ldr	x0, [x29,#88]
    3288:	b9403400 	ldr	w0, [x0,#52]
    328c:	3100081f 	cmn	w0, #0x2
    3290:	540000c0 	b.eq	32a8 <cs_cti_diag+0x74>
    3294:	f9402fa0 	ldr	x0, [x29,#88]
    3298:	b9403401 	ldr	w1, [x0,#52]
    329c:	f0000140 	adrp	x0, 2e000 <__func__.5451+0x38>
    32a0:	9109e000 	add	x0, x0, #0x278
    32a4:	97fff725 	bl	f38 <_diagf>
    32a8:	52800022 	mov	w2, #0x1                   	// #1
    32ac:	52800001 	mov	w1, #0x0                   	// #0
    32b0:	f9402fa0 	ldr	x0, [x29,#88]
    32b4:	97fffafe 	bl	1eac <_cs_isset>
    32b8:	7100001f 	cmp	w0, #0x0
    32bc:	54000080 	b.eq	32cc <cs_cti_diag+0x98>
    32c0:	f0000140 	adrp	x0, 2e000 <__func__.5451+0x38>
    32c4:	910a2000 	add	x0, x0, #0x288
    32c8:	14000003 	b	32d4 <cs_cti_diag+0xa0>
    32cc:	f0000140 	adrp	x0, 2e000 <__func__.5451+0x38>
    32d0:	910a4000 	add	x0, x0, #0x290
    32d4:	f0000141 	adrp	x1, 2e000 <__func__.5451+0x38>
    32d8:	910a6022 	add	x2, x1, #0x298
    32dc:	aa0003e1 	mov	x1, x0
    32e0:	aa0203e0 	mov	x0, x2
    32e4:	97fff715 	bl	f38 <_diagf>
    32e8:	f0000140 	adrp	x0, 2e000 <__func__.5451+0x38>
    32ec:	910aa000 	add	x0, x0, #0x2a8
    32f0:	97fff712 	bl	f38 <_diagf>
    32f4:	52802601 	mov	w1, #0x130                 	// #304
    32f8:	f9402fa0 	ldr	x0, [x29,#88]
    32fc:	97fff8cb 	bl	1628 <_cs_read>
    3300:	b9004fa0 	str	w0, [x29,#76]
    3304:	52802681 	mov	w1, #0x134                 	// #308
    3308:	f9402fa0 	ldr	x0, [x29,#88]
    330c:	97fff8c7 	bl	1628 <_cs_read>
    3310:	b9004ba0 	str	w0, [x29,#72]
    3314:	52800281 	mov	w1, #0x14                  	// #20
    3318:	f9402fa0 	ldr	x0, [x29,#88]
    331c:	97fff8c3 	bl	1628 <_cs_read>
    3320:	b90047a0 	str	w0, [x29,#68]
    3324:	52802801 	mov	w1, #0x140                 	// #320
    3328:	f9402fa0 	ldr	x0, [x29,#88]
    332c:	97fff8bf 	bl	1628 <_cs_read>
    3330:	b90043a0 	str	w0, [x29,#64]
    3334:	52802701 	mov	w1, #0x138                 	// #312
    3338:	f9402fa0 	ldr	x0, [x29,#88]
    333c:	97fff8bb 	bl	1628 <_cs_read>
    3340:	b9003fa0 	str	w0, [x29,#60]
    3344:	52802781 	mov	w1, #0x13c                 	// #316
    3348:	f9402fa0 	ldr	x0, [x29,#88]
    334c:	97fff8b7 	bl	1628 <_cs_read>
    3350:	b9003ba0 	str	w0, [x29,#56]
    3354:	f0000140 	adrp	x0, 2e000 <__func__.5451+0x38>
    3358:	910ac000 	add	x0, x0, #0x2b0
    335c:	b94043a6 	ldr	w6, [x29,#64]
    3360:	b94047a5 	ldr	w5, [x29,#68]
    3364:	b9403ba4 	ldr	w4, [x29,#56]
    3368:	b9403fa3 	ldr	w3, [x29,#60]
    336c:	b9404ba2 	ldr	w2, [x29,#72]
    3370:	b9404fa1 	ldr	w1, [x29,#76]
    3374:	97fff6f1 	bl	f38 <_diagf>
    3378:	f9402fa0 	ldr	x0, [x29,#88]
    337c:	39438400 	ldrb	w0, [x0,#225]
    3380:	2a0003e1 	mov	w1, w0
    3384:	f0000140 	adrp	x0, 2e000 <__func__.5451+0x38>
    3388:	910be000 	add	x0, x0, #0x2f8
    338c:	97fff6eb 	bl	f38 <_diagf>
    3390:	b94047a0 	ldr	w0, [x29,#68]
    3394:	7100001f 	cmp	w0, #0x0
    3398:	540001c1 	b.ne	33d0 <cs_cti_diag+0x19c>
    339c:	b9403fa0 	ldr	w0, [x29,#60]
    33a0:	7100001f 	cmp	w0, #0x0
    33a4:	54000161 	b.ne	33d0 <cs_cti_diag+0x19c>
    33a8:	b9403ba0 	ldr	w0, [x29,#56]
    33ac:	7100001f 	cmp	w0, #0x0
    33b0:	54000101 	b.ne	33d0 <cs_cti_diag+0x19c>
    33b4:	b94043a0 	ldr	w0, [x29,#64]
    33b8:	71003c1f 	cmp	w0, #0xf
    33bc:	540000a1 	b.ne	33d0 <cs_cti_diag+0x19c>
    33c0:	f9402fa0 	ldr	x0, [x29,#88]
    33c4:	97fffe1d 	bl	2c38 <cs_cti_used_channels>
    33c8:	7100001f 	cmp	w0, #0x0
    33cc:	54000e20 	b.eq	3590 <cs_cti_diag+0x35c>
    33d0:	b90057bf 	str	wzr, [x29,#84]
    33d4:	14000068 	b	3574 <cs_cti_diag+0x340>
    33d8:	f0000140 	adrp	x0, 2e000 <__func__.5451+0x38>
    33dc:	910c4000 	add	x0, x0, #0x310
    33e0:	b94057a1 	ldr	w1, [x29,#84]
    33e4:	97fff6d5 	bl	f38 <_diagf>
    33e8:	b90053bf 	str	wzr, [x29,#80]
    33ec:	14000014 	b	343c <cs_cti_diag+0x208>
    33f0:	b94053a0 	ldr	w0, [x29,#80]
    33f4:	11002000 	add	w0, w0, #0x8
    33f8:	531e7403 	lsl	w3, w0, #2
    33fc:	b94057a0 	ldr	w0, [x29,#84]
    3400:	52800021 	mov	w1, #0x1                   	// #1
    3404:	1ac02020 	lsl	w0, w1, w0
    3408:	2a0003e2 	mov	w2, w0
    340c:	2a0303e1 	mov	w1, w3
    3410:	f9402fa0 	ldr	x0, [x29,#88]
    3414:	97fffaa6 	bl	1eac <_cs_isset>
    3418:	7100001f 	cmp	w0, #0x0
    341c:	540000a0 	b.eq	3430 <cs_cti_diag+0x1fc>
    3420:	f0000140 	adrp	x0, 2e000 <__func__.5451+0x38>
    3424:	910c8000 	add	x0, x0, #0x320
    3428:	b94053a1 	ldr	w1, [x29,#80]
    342c:	97fff6c3 	bl	f38 <_diagf>
    3430:	b94053a0 	ldr	w0, [x29,#80]
    3434:	11000400 	add	w0, w0, #0x1
    3438:	b90053a0 	str	w0, [x29,#80]
    343c:	f9402fa0 	ldr	x0, [x29,#88]
    3440:	39438000 	ldrb	w0, [x0,#224]
    3444:	2a0003e1 	mov	w1, w0
    3448:	b94053a0 	ldr	w0, [x29,#80]
    344c:	6b00003f 	cmp	w1, w0
    3450:	54fffd08 	b.hi	33f0 <cs_cti_diag+0x1bc>
    3454:	f0000140 	adrp	x0, 2e000 <__func__.5451+0x38>
    3458:	910ca000 	add	x0, x0, #0x328
    345c:	97fff6b7 	bl	f38 <_diagf>
    3460:	b90053bf 	str	wzr, [x29,#80]
    3464:	14000014 	b	34b4 <cs_cti_diag+0x280>
    3468:	b94053a0 	ldr	w0, [x29,#80]
    346c:	1100a000 	add	w0, w0, #0x28
    3470:	531e7403 	lsl	w3, w0, #2
    3474:	b94057a0 	ldr	w0, [x29,#84]
    3478:	52800021 	mov	w1, #0x1                   	// #1
    347c:	1ac02020 	lsl	w0, w1, w0
    3480:	2a0003e2 	mov	w2, w0
    3484:	2a0303e1 	mov	w1, w3
    3488:	f9402fa0 	ldr	x0, [x29,#88]
    348c:	97fffa88 	bl	1eac <_cs_isset>
    3490:	7100001f 	cmp	w0, #0x0
    3494:	540000a0 	b.eq	34a8 <cs_cti_diag+0x274>
    3498:	f0000140 	adrp	x0, 2e000 <__func__.5451+0x38>
    349c:	910c8000 	add	x0, x0, #0x320
    34a0:	b94053a1 	ldr	w1, [x29,#80]
    34a4:	97fff6a5 	bl	f38 <_diagf>
    34a8:	b94053a0 	ldr	w0, [x29,#80]
    34ac:	11000400 	add	w0, w0, #0x1
    34b0:	b90053a0 	str	w0, [x29,#80]
    34b4:	f9402fa0 	ldr	x0, [x29,#88]
    34b8:	39438000 	ldrb	w0, [x0,#224]
    34bc:	2a0003e1 	mov	w1, w0
    34c0:	b94053a0 	ldr	w0, [x29,#80]
    34c4:	6b00003f 	cmp	w1, w0
    34c8:	54fffd08 	b.hi	3468 <cs_cti_diag+0x234>
    34cc:	b94057a0 	ldr	w0, [x29,#84]
    34d0:	b9403fa1 	ldr	w1, [x29,#60]
    34d4:	1ac02420 	lsr	w0, w1, w0
    34d8:	12000000 	and	w0, w0, #0x1
    34dc:	7100001f 	cmp	w0, #0x0
    34e0:	54000080 	b.eq	34f0 <cs_cti_diag+0x2bc>
    34e4:	f0000140 	adrp	x0, 2e000 <__func__.5451+0x38>
    34e8:	910cc000 	add	x0, x0, #0x330
    34ec:	97fff693 	bl	f38 <_diagf>
    34f0:	b94057a0 	ldr	w0, [x29,#84]
    34f4:	b9403ba1 	ldr	w1, [x29,#56]
    34f8:	1ac02420 	lsr	w0, w1, w0
    34fc:	12000000 	and	w0, w0, #0x1
    3500:	7100001f 	cmp	w0, #0x0
    3504:	54000080 	b.eq	3514 <cs_cti_diag+0x2e0>
    3508:	f0000140 	adrp	x0, 2e000 <__func__.5451+0x38>
    350c:	910d0000 	add	x0, x0, #0x340
    3510:	97fff68a 	bl	f38 <_diagf>
    3514:	b94057a0 	ldr	w0, [x29,#84]
    3518:	b94047a1 	ldr	w1, [x29,#68]
    351c:	1ac02420 	lsr	w0, w1, w0
    3520:	12000000 	and	w0, w0, #0x1
    3524:	7100001f 	cmp	w0, #0x0
    3528:	54000080 	b.eq	3538 <cs_cti_diag+0x304>
    352c:	f0000140 	adrp	x0, 2e000 <__func__.5451+0x38>
    3530:	910d6000 	add	x0, x0, #0x358
    3534:	97fff681 	bl	f38 <_diagf>
    3538:	b94057a0 	ldr	w0, [x29,#84]
    353c:	b94043a1 	ldr	w1, [x29,#64]
    3540:	1ac02420 	lsr	w0, w1, w0
    3544:	12000000 	and	w0, w0, #0x1
    3548:	7100001f 	cmp	w0, #0x0
    354c:	54000081 	b.ne	355c <cs_cti_diag+0x328>
    3550:	f0000140 	adrp	x0, 2e000 <__func__.5451+0x38>
    3554:	910da000 	add	x0, x0, #0x368
    3558:	97fff678 	bl	f38 <_diagf>
    355c:	f0000140 	adrp	x0, 2e000 <__func__.5451+0x38>
    3560:	910de000 	add	x0, x0, #0x378
    3564:	97fff675 	bl	f38 <_diagf>
    3568:	b94057a0 	ldr	w0, [x29,#84]
    356c:	11000400 	add	w0, w0, #0x1
    3570:	b90057a0 	str	w0, [x29,#84]
    3574:	f9402fa0 	ldr	x0, [x29,#88]
    3578:	39438400 	ldrb	w0, [x0,#225]
    357c:	2a0003e1 	mov	w1, w0
    3580:	b94057a0 	ldr	w0, [x29,#84]
    3584:	6b00003f 	cmp	w1, w0
    3588:	54fff288 	b.hi	33d8 <cs_cti_diag+0x1a4>
    358c:	14000004 	b	359c <cs_cti_diag+0x368>
    3590:	f0000140 	adrp	x0, 2e000 <__func__.5451+0x38>
    3594:	910e0000 	add	x0, x0, #0x380
    3598:	97fff668 	bl	f38 <_diagf>
    359c:	f9402fa0 	ldr	x0, [x29,#88]
    35a0:	39438000 	ldrb	w0, [x0,#224]
    35a4:	2a0003e1 	mov	w1, w0
    35a8:	f0000140 	adrp	x0, 2e000 <__func__.5451+0x38>
    35ac:	910e6000 	add	x0, x0, #0x398
    35b0:	97fff662 	bl	f38 <_diagf>
    35b4:	b90057bf 	str	wzr, [x29,#84]
    35b8:	14000054 	b	3708 <cs_cti_diag+0x4d4>
    35bc:	b94057a0 	ldr	w0, [x29,#84]
    35c0:	11002000 	add	w0, w0, #0x8
    35c4:	531e7400 	lsl	w0, w0, #2
    35c8:	2a0003e1 	mov	w1, w0
    35cc:	f9402fa0 	ldr	x0, [x29,#88]
    35d0:	97fff816 	bl	1628 <_cs_read>
    35d4:	b90037a0 	str	w0, [x29,#52]
    35d8:	b94057a0 	ldr	w0, [x29,#84]
    35dc:	b9404fa1 	ldr	w1, [x29,#76]
    35e0:	1ac02420 	lsr	w0, w1, w0
    35e4:	12000000 	and	w0, w0, #0x1
    35e8:	7100001f 	cmp	w0, #0x0
    35ec:	1a9f07e0 	cset	w0, ne
    35f0:	12001c00 	and	w0, w0, #0xff
    35f4:	b90033a0 	str	w0, [x29,#48]
    35f8:	f9402fa1 	ldr	x1, [x29,#88]
    35fc:	b94057a0 	ldr	w0, [x29,#84]
    3600:	91003800 	add	x0, x0, #0xe
    3604:	d37cec00 	lsl	x0, x0, #4
    3608:	8b000020 	add	x0, x1, x0
    360c:	f9400400 	ldr	x0, [x0,#8]
    3610:	f90017a0 	str	x0, [x29,#40]
    3614:	f94017a0 	ldr	x0, [x29,#40]
    3618:	f100001f 	cmp	x0, #0x0
    361c:	540000e1 	b.ne	3638 <cs_cti_diag+0x404>
    3620:	b94037a0 	ldr	w0, [x29,#52]
    3624:	7100001f 	cmp	w0, #0x0
    3628:	54000081 	b.ne	3638 <cs_cti_diag+0x404>
    362c:	b94033a0 	ldr	w0, [x29,#48]
    3630:	7100001f 	cmp	w0, #0x0
    3634:	54000620 	b.eq	36f8 <cs_cti_diag+0x4c4>
    3638:	f0000140 	adrp	x0, 2e000 <__func__.5451+0x38>
    363c:	910c4000 	add	x0, x0, #0x310
    3640:	b94057a1 	ldr	w1, [x29,#84]
    3644:	97fff63d 	bl	f38 <_diagf>
    3648:	f9402fa1 	ldr	x1, [x29,#88]
    364c:	b94057a0 	ldr	w0, [x29,#84]
    3650:	91003800 	add	x0, x0, #0xe
    3654:	d37cec00 	lsl	x0, x0, #4
    3658:	8b000020 	add	x0, x1, x0
    365c:	f9400400 	ldr	x0, [x0,#8]
    3660:	f100001f 	cmp	x0, #0x0
    3664:	54000280 	b.eq	36b4 <cs_cti_diag+0x480>
    3668:	f94017a0 	ldr	x0, [x29,#40]
    366c:	97fff699 	bl	10d0 <cs_device_type_name>
    3670:	aa0003e3 	mov	x3, x0
    3674:	f94017a0 	ldr	x0, [x29,#40]
    3678:	f9400801 	ldr	x1, [x0,#16]
    367c:	f0000140 	adrp	x0, 2e000 <__func__.5451+0x38>
    3680:	910ee000 	add	x0, x0, #0x3b8
    3684:	aa0103e2 	mov	x2, x1
    3688:	aa0303e1 	mov	x1, x3
    368c:	97fff62b 	bl	f38 <_diagf>
    3690:	f9402fa1 	ldr	x1, [x29,#88]
    3694:	b94057a0 	ldr	w0, [x29,#84]
    3698:	91003800 	add	x0, x0, #0xe
    369c:	d37cec00 	lsl	x0, x0, #4
    36a0:	8b000020 	add	x0, x1, x0
    36a4:	b9401001 	ldr	w1, [x0,#16]
    36a8:	f0000140 	adrp	x0, 2e000 <__func__.5451+0x38>
    36ac:	910f2000 	add	x0, x0, #0x3c8
    36b0:	97fff622 	bl	f38 <_diagf>
    36b4:	b94037a0 	ldr	w0, [x29,#52]
    36b8:	7100001f 	cmp	w0, #0x0
    36bc:	540000a0 	b.eq	36d0 <cs_cti_diag+0x49c>
    36c0:	f0000140 	adrp	x0, 2e000 <__func__.5451+0x38>
    36c4:	910f4000 	add	x0, x0, #0x3d0
    36c8:	b94037a1 	ldr	w1, [x29,#52]
    36cc:	97fff61b 	bl	f38 <_diagf>
    36d0:	b94033a0 	ldr	w0, [x29,#48]
    36d4:	7100001f 	cmp	w0, #0x0
    36d8:	54000080 	b.eq	36e8 <cs_cti_diag+0x4b4>
    36dc:	f0000140 	adrp	x0, 2e000 <__func__.5451+0x38>
    36e0:	910d6000 	add	x0, x0, #0x358
    36e4:	97fff615 	bl	f38 <_diagf>
    36e8:	f0000140 	adrp	x0, 2e000 <__func__.5451+0x38>
    36ec:	910de000 	add	x0, x0, #0x378
    36f0:	97fff612 	bl	f38 <_diagf>
    36f4:	14000002 	b	36fc <cs_cti_diag+0x4c8>
    36f8:	d503201f 	nop
    36fc:	b94057a0 	ldr	w0, [x29,#84]
    3700:	11000400 	add	w0, w0, #0x1
    3704:	b90057a0 	str	w0, [x29,#84]
    3708:	f9402fa0 	ldr	x0, [x29,#88]
    370c:	39438000 	ldrb	w0, [x0,#224]
    3710:	2a0003e1 	mov	w1, w0
    3714:	b94057a0 	ldr	w0, [x29,#84]
    3718:	6b00003f 	cmp	w1, w0
    371c:	54fff508 	b.hi	35bc <cs_cti_diag+0x388>
    3720:	f9402fa0 	ldr	x0, [x29,#88]
    3724:	39438000 	ldrb	w0, [x0,#224]
    3728:	2a0003e1 	mov	w1, w0
    372c:	f0000140 	adrp	x0, 2e000 <__func__.5451+0x38>
    3730:	910f8000 	add	x0, x0, #0x3e0
    3734:	97fff601 	bl	f38 <_diagf>
    3738:	b90057bf 	str	wzr, [x29,#84]
    373c:	14000057 	b	3898 <cs_cti_diag+0x664>
    3740:	b94057a0 	ldr	w0, [x29,#84]
    3744:	1100a000 	add	w0, w0, #0x28
    3748:	531e7400 	lsl	w0, w0, #2
    374c:	2a0003e1 	mov	w1, w0
    3750:	f9402fa0 	ldr	x0, [x29,#88]
    3754:	97fff7b5 	bl	1628 <_cs_read>
    3758:	b90027a0 	str	w0, [x29,#36]
    375c:	b94057a0 	ldr	w0, [x29,#84]
    3760:	b9404ba1 	ldr	w1, [x29,#72]
    3764:	1ac02420 	lsr	w0, w1, w0
    3768:	12000000 	and	w0, w0, #0x1
    376c:	7100001f 	cmp	w0, #0x0
    3770:	1a9f07e0 	cset	w0, ne
    3774:	12001c00 	and	w0, w0, #0xff
    3778:	b90023a0 	str	w0, [x29,#32]
    377c:	f9402fa1 	ldr	x1, [x29,#88]
    3780:	b94057a0 	ldr	w0, [x29,#84]
    3784:	91006000 	add	x0, x0, #0x18
    3788:	d37cec00 	lsl	x0, x0, #4
    378c:	8b000020 	add	x0, x1, x0
    3790:	f9400400 	ldr	x0, [x0,#8]
    3794:	f9000fa0 	str	x0, [x29,#24]
    3798:	f9400fa0 	ldr	x0, [x29,#24]
    379c:	f100001f 	cmp	x0, #0x0
    37a0:	540000e1 	b.ne	37bc <cs_cti_diag+0x588>
    37a4:	b94027a0 	ldr	w0, [x29,#36]
    37a8:	7100001f 	cmp	w0, #0x0
    37ac:	54000081 	b.ne	37bc <cs_cti_diag+0x588>
    37b0:	b94023a0 	ldr	w0, [x29,#32]
    37b4:	7100001f 	cmp	w0, #0x0
    37b8:	54000680 	b.eq	3888 <cs_cti_diag+0x654>
    37bc:	f0000140 	adrp	x0, 2e000 <__func__.5451+0x38>
    37c0:	910c4000 	add	x0, x0, #0x310
    37c4:	b94057a1 	ldr	w1, [x29,#84]
    37c8:	97fff5dc 	bl	f38 <_diagf>
    37cc:	f9402fa1 	ldr	x1, [x29,#88]
    37d0:	b94057a0 	ldr	w0, [x29,#84]
    37d4:	91006000 	add	x0, x0, #0x18
    37d8:	d37cec00 	lsl	x0, x0, #4
    37dc:	8b000020 	add	x0, x1, x0
    37e0:	f9400400 	ldr	x0, [x0,#8]
    37e4:	f100001f 	cmp	x0, #0x0
    37e8:	54000280 	b.eq	3838 <cs_cti_diag+0x604>
    37ec:	f9400fa0 	ldr	x0, [x29,#24]
    37f0:	97fff638 	bl	10d0 <cs_device_type_name>
    37f4:	aa0003e3 	mov	x3, x0
    37f8:	f9400fa0 	ldr	x0, [x29,#24]
    37fc:	f9400801 	ldr	x1, [x0,#16]
    3800:	f0000140 	adrp	x0, 2e000 <__func__.5451+0x38>
    3804:	910ee000 	add	x0, x0, #0x3b8
    3808:	aa0103e2 	mov	x2, x1
    380c:	aa0303e1 	mov	x1, x3
    3810:	97fff5ca 	bl	f38 <_diagf>
    3814:	f9402fa1 	ldr	x1, [x29,#88]
    3818:	b94057a0 	ldr	w0, [x29,#84]
    381c:	91006000 	add	x0, x0, #0x18
    3820:	d37cec00 	lsl	x0, x0, #4
    3824:	8b000020 	add	x0, x1, x0
    3828:	b9401001 	ldr	w1, [x0,#16]
    382c:	f0000140 	adrp	x0, 2e000 <__func__.5451+0x38>
    3830:	910f2000 	add	x0, x0, #0x3c8
    3834:	97fff5c1 	bl	f38 <_diagf>
    3838:	b94027a0 	ldr	w0, [x29,#36]
    383c:	7100001f 	cmp	w0, #0x0
    3840:	540000a0 	b.eq	3854 <cs_cti_diag+0x620>
    3844:	f0000140 	adrp	x0, 2e000 <__func__.5451+0x38>
    3848:	91100000 	add	x0, x0, #0x400
    384c:	b94027a1 	ldr	w1, [x29,#36]
    3850:	97fff5ba 	bl	f38 <_diagf>
    3854:	b94057a0 	ldr	w0, [x29,#84]
    3858:	b9404ba1 	ldr	w1, [x29,#72]
    385c:	1ac02420 	lsr	w0, w1, w0
    3860:	12000000 	and	w0, w0, #0x1
    3864:	7100001f 	cmp	w0, #0x0
    3868:	54000080 	b.eq	3878 <cs_cti_diag+0x644>
    386c:	f0000140 	adrp	x0, 2e000 <__func__.5451+0x38>
    3870:	910d6000 	add	x0, x0, #0x358
    3874:	97fff5b1 	bl	f38 <_diagf>
    3878:	f0000140 	adrp	x0, 2e000 <__func__.5451+0x38>
    387c:	910de000 	add	x0, x0, #0x378
    3880:	97fff5ae 	bl	f38 <_diagf>
    3884:	14000002 	b	388c <cs_cti_diag+0x658>
    3888:	d503201f 	nop
    388c:	b94057a0 	ldr	w0, [x29,#84]
    3890:	11000400 	add	w0, w0, #0x1
    3894:	b90057a0 	str	w0, [x29,#84]
    3898:	f9402fa0 	ldr	x0, [x29,#88]
    389c:	39438000 	ldrb	w0, [x0,#224]
    38a0:	2a0003e1 	mov	w1, w0
    38a4:	b94057a0 	ldr	w0, [x29,#84]
    38a8:	6b00003f 	cmp	w1, w0
    38ac:	54fff4a8 	b.hi	3740 <cs_cti_diag+0x50c>
    38b0:	14000002 	b	38b8 <cs_cti_diag+0x684>
    38b4:	d503201f 	nop
    38b8:	f9402fa0 	ldr	x0, [x29,#88]
    38bc:	f9400000 	ldr	x0, [x0]
    38c0:	f9002fa0 	str	x0, [x29,#88]
    38c4:	f9402fa0 	ldr	x0, [x29,#88]
    38c8:	f100001f 	cmp	x0, #0x0
    38cc:	54ffcc21 	b.ne	3250 <cs_cti_diag+0x1c>
    38d0:	d503201f 	nop
    38d4:	a8c67bfd 	ldp	x29, x30, [sp],#96
    38d8:	d65f03c0 	ret

00000000000038dc <cs_cti_trigsrc>:
    38dc:	a9bd7bfd 	stp	x29, x30, [sp,#-48]!
    38e0:	910003fd 	mov	x29, sp
    38e4:	f9000fa0 	str	x0, [x29,#24]
    38e8:	b90017a1 	str	w1, [x29,#20]
    38ec:	f9400fa0 	ldr	x0, [x29,#24]
    38f0:	f90013a0 	str	x0, [x29,#32]
    38f4:	b94017a0 	ldr	w0, [x29,#20]
    38f8:	b9002ba0 	str	w0, [x29,#40]
    38fc:	f94013a0 	ldr	x0, [x29,#32]
    3900:	f100001f 	cmp	x0, #0x0
    3904:	540000c0 	b.eq	391c <cs_cti_trigsrc+0x40>
    3908:	f94013a0 	ldr	x0, [x29,#32]
    390c:	97fff6cc 	bl	143c <cs_get_device_struct>
    3910:	b9402400 	ldr	w0, [x0,#36]
    3914:	7100281f 	cmp	w0, #0xa
    3918:	54000160 	b.eq	3944 <cs_cti_trigsrc+0x68>
    391c:	f0000140 	adrp	x0, 2e000 <__func__.5451+0x38>
    3920:	91104002 	add	x2, x0, #0x410
    3924:	f0000140 	adrp	x0, 2e000 <__func__.5451+0x38>
    3928:	911d6001 	add	x1, x0, #0x758
    392c:	f0000140 	adrp	x0, 2e000 <__func__.5451+0x38>
    3930:	91058000 	add	x0, x0, #0x160
    3934:	aa0203e3 	mov	x3, x2
    3938:	aa0103e2 	mov	x2, x1
    393c:	52802e21 	mov	w1, #0x171                 	// #369
    3940:	940048ce 	bl	15c78 <__assert_func>
    3944:	a94207a0 	ldp	x0, x1, [x29,#32]
    3948:	a8c37bfd 	ldp	x29, x30, [sp],#48
    394c:	d65f03c0 	ret

0000000000003950 <cs_cti_trigdst>:
    3950:	a9bd7bfd 	stp	x29, x30, [sp,#-48]!
    3954:	910003fd 	mov	x29, sp
    3958:	f9000fa0 	str	x0, [x29,#24]
    395c:	b90017a1 	str	w1, [x29,#20]
    3960:	f9400fa0 	ldr	x0, [x29,#24]
    3964:	f90013a0 	str	x0, [x29,#32]
    3968:	b94017a0 	ldr	w0, [x29,#20]
    396c:	b9002ba0 	str	w0, [x29,#40]
    3970:	f94013a0 	ldr	x0, [x29,#32]
    3974:	f100001f 	cmp	x0, #0x0
    3978:	540000c0 	b.eq	3990 <cs_cti_trigdst+0x40>
    397c:	f94013a0 	ldr	x0, [x29,#32]
    3980:	97fff6af 	bl	143c <cs_get_device_struct>
    3984:	b9402400 	ldr	w0, [x0,#36]
    3988:	7100281f 	cmp	w0, #0xa
    398c:	54000160 	b.eq	39b8 <cs_cti_trigdst+0x68>
    3990:	f0000140 	adrp	x0, 2e000 <__func__.5451+0x38>
    3994:	91104002 	add	x2, x0, #0x410
    3998:	f0000140 	adrp	x0, 2e000 <__func__.5451+0x38>
    399c:	911da001 	add	x1, x0, #0x768
    39a0:	f0000140 	adrp	x0, 2e000 <__func__.5451+0x38>
    39a4:	91058000 	add	x0, x0, #0x160
    39a8:	aa0203e3 	mov	x3, x2
    39ac:	aa0103e2 	mov	x2, x1
    39b0:	52802f41 	mov	w1, #0x17a                 	// #378
    39b4:	940048b1 	bl	15c78 <__assert_func>
    39b8:	a94207a0 	ldp	x0, x1, [x29,#32]
    39bc:	a8c37bfd 	ldp	x29, x30, [sp],#48
    39c0:	d65f03c0 	ret

00000000000039c4 <cs_trigsrc_cti>:
    39c4:	d10043ff 	sub	sp, sp, #0x10
    39c8:	a90007e0 	stp	x0, x1, [sp]
    39cc:	f94003e0 	ldr	x0, [sp]
    39d0:	910043ff 	add	sp, sp, #0x10
    39d4:	d65f03c0 	ret

00000000000039d8 <cs_trigdst_cti>:
    39d8:	d10043ff 	sub	sp, sp, #0x10
    39dc:	a90007e0 	stp	x0, x1, [sp]
    39e0:	f94003e0 	ldr	x0, [sp]
    39e4:	910043ff 	add	sp, sp, #0x10
    39e8:	d65f03c0 	ret

00000000000039ec <cs_cti_connect_trigsrc>:
    39ec:	a9bb7bfd 	stp	x29, x30, [sp,#-80]!
    39f0:	910003fd 	mov	x29, sp
    39f4:	f9000bf3 	str	x19, [sp,#16]
    39f8:	f9001fa0 	str	x0, [x29,#56]
    39fc:	b90037a1 	str	w1, [x29,#52]
    3a00:	a9020fa2 	stp	x2, x3, [x29,#32]
    3a04:	f94013a0 	ldr	x0, [x29,#32]
    3a08:	97fff68d 	bl	143c <cs_get_device_struct>
    3a0c:	f90027a0 	str	x0, [x29,#72]
    3a10:	f9401fa0 	ldr	x0, [x29,#56]
    3a14:	97fff68a 	bl	143c <cs_get_device_struct>
    3a18:	b9402400 	ldr	w0, [x0,#36]
    3a1c:	7100281f 	cmp	w0, #0xa
    3a20:	54000161 	b.ne	3a4c <cs_cti_connect_trigsrc+0x60>
    3a24:	f0000140 	adrp	x0, 2e000 <__func__.5451+0x38>
    3a28:	91108002 	add	x2, x0, #0x420
    3a2c:	f0000140 	adrp	x0, 2e000 <__func__.5451+0x38>
    3a30:	911de001 	add	x1, x0, #0x778
    3a34:	f0000140 	adrp	x0, 2e000 <__func__.5451+0x38>
    3a38:	91058000 	add	x0, x0, #0x160
    3a3c:	aa0203e3 	mov	x3, x2
    3a40:	aa0103e2 	mov	x2, x1
    3a44:	528031a1 	mov	w1, #0x18d                 	// #397
    3a48:	9400488c 	bl	15c78 <__assert_func>
    3a4c:	f94013a0 	ldr	x0, [x29,#32]
    3a50:	f100001f 	cmp	x0, #0x0
    3a54:	540000c0 	b.eq	3a6c <cs_cti_connect_trigsrc+0x80>
    3a58:	f94013a0 	ldr	x0, [x29,#32]
    3a5c:	97fff678 	bl	143c <cs_get_device_struct>
    3a60:	b9402400 	ldr	w0, [x0,#36]
    3a64:	7100281f 	cmp	w0, #0xa
    3a68:	54000160 	b.eq	3a94 <cs_cti_connect_trigsrc+0xa8>
    3a6c:	f0000140 	adrp	x0, 2e000 <__func__.5451+0x38>
    3a70:	91110002 	add	x2, x0, #0x440
    3a74:	f0000140 	adrp	x0, 2e000 <__func__.5451+0x38>
    3a78:	911de001 	add	x1, x0, #0x778
    3a7c:	f0000140 	adrp	x0, 2e000 <__func__.5451+0x38>
    3a80:	91058000 	add	x0, x0, #0x160
    3a84:	aa0203e3 	mov	x3, x2
    3a88:	aa0103e2 	mov	x2, x1
    3a8c:	528031c1 	mov	w1, #0x18e                 	// #398
    3a90:	9400487a 	bl	15c78 <__assert_func>
    3a94:	b9402bb3 	ldr	w19, [x29,#40]
    3a98:	f9401fa0 	ldr	x0, [x29,#56]
    3a9c:	97fff668 	bl	143c <cs_get_device_struct>
    3aa0:	aa0003e2 	mov	x2, x0
    3aa4:	f94027a1 	ldr	x1, [x29,#72]
    3aa8:	2a1303e0 	mov	w0, w19
    3aac:	91003800 	add	x0, x0, #0xe
    3ab0:	d37cec00 	lsl	x0, x0, #4
    3ab4:	8b000020 	add	x0, x1, x0
    3ab8:	f9000402 	str	x2, [x0,#8]
    3abc:	b9402ba0 	ldr	w0, [x29,#40]
    3ac0:	f94027a1 	ldr	x1, [x29,#72]
    3ac4:	2a0003e0 	mov	w0, w0
    3ac8:	91003800 	add	x0, x0, #0xe
    3acc:	d37cec00 	lsl	x0, x0, #4
    3ad0:	8b000020 	add	x0, x1, x0
    3ad4:	b94037a1 	ldr	w1, [x29,#52]
    3ad8:	b9001001 	str	w1, [x0,#16]
    3adc:	52800000 	mov	w0, #0x0                   	// #0
    3ae0:	f9400bf3 	ldr	x19, [sp,#16]
    3ae4:	a8c57bfd 	ldp	x29, x30, [sp],#80
    3ae8:	d65f03c0 	ret

0000000000003aec <cs_cti_connect_trigdst>:
    3aec:	a9bb7bfd 	stp	x29, x30, [sp,#-80]!
    3af0:	910003fd 	mov	x29, sp
    3af4:	f9000bf3 	str	x19, [sp,#16]
    3af8:	a90307a0 	stp	x0, x1, [x29,#48]
    3afc:	f90017a2 	str	x2, [x29,#40]
    3b00:	b90027a3 	str	w3, [x29,#36]
    3b04:	f9401ba0 	ldr	x0, [x29,#48]
    3b08:	97fff64d 	bl	143c <cs_get_device_struct>
    3b0c:	f90027a0 	str	x0, [x29,#72]
    3b10:	f94017a0 	ldr	x0, [x29,#40]
    3b14:	97fff64a 	bl	143c <cs_get_device_struct>
    3b18:	b9402400 	ldr	w0, [x0,#36]
    3b1c:	7100281f 	cmp	w0, #0xa
    3b20:	54000161 	b.ne	3b4c <cs_cti_connect_trigdst+0x60>
    3b24:	f0000140 	adrp	x0, 2e000 <__func__.5451+0x38>
    3b28:	91108002 	add	x2, x0, #0x420
    3b2c:	f0000140 	adrp	x0, 2e000 <__func__.5451+0x38>
    3b30:	911e4001 	add	x1, x0, #0x790
    3b34:	f0000140 	adrp	x0, 2e000 <__func__.5451+0x38>
    3b38:	91058000 	add	x0, x0, #0x160
    3b3c:	aa0203e3 	mov	x3, x2
    3b40:	aa0103e2 	mov	x2, x1
    3b44:	52803301 	mov	w1, #0x198                 	// #408
    3b48:	9400484c 	bl	15c78 <__assert_func>
    3b4c:	f9401ba0 	ldr	x0, [x29,#48]
    3b50:	f100001f 	cmp	x0, #0x0
    3b54:	540000c0 	b.eq	3b6c <cs_cti_connect_trigdst+0x80>
    3b58:	f9401ba0 	ldr	x0, [x29,#48]
    3b5c:	97fff638 	bl	143c <cs_get_device_struct>
    3b60:	b9402400 	ldr	w0, [x0,#36]
    3b64:	7100281f 	cmp	w0, #0xa
    3b68:	54000160 	b.eq	3b94 <cs_cti_connect_trigdst+0xa8>
    3b6c:	f0000140 	adrp	x0, 2e000 <__func__.5451+0x38>
    3b70:	91116002 	add	x2, x0, #0x458
    3b74:	f0000140 	adrp	x0, 2e000 <__func__.5451+0x38>
    3b78:	911e4001 	add	x1, x0, #0x790
    3b7c:	f0000140 	adrp	x0, 2e000 <__func__.5451+0x38>
    3b80:	91058000 	add	x0, x0, #0x160
    3b84:	aa0203e3 	mov	x3, x2
    3b88:	aa0103e2 	mov	x2, x1
    3b8c:	52803321 	mov	w1, #0x199                 	// #409
    3b90:	9400483a 	bl	15c78 <__assert_func>
    3b94:	b9403bb3 	ldr	w19, [x29,#56]
    3b98:	f94017a0 	ldr	x0, [x29,#40]
    3b9c:	97fff628 	bl	143c <cs_get_device_struct>
    3ba0:	aa0003e2 	mov	x2, x0
    3ba4:	f94027a1 	ldr	x1, [x29,#72]
    3ba8:	2a1303e0 	mov	w0, w19
    3bac:	91006000 	add	x0, x0, #0x18
    3bb0:	d37cec00 	lsl	x0, x0, #4
    3bb4:	8b000020 	add	x0, x1, x0
    3bb8:	f9000402 	str	x2, [x0,#8]
    3bbc:	b9403ba0 	ldr	w0, [x29,#56]
    3bc0:	f94027a1 	ldr	x1, [x29,#72]
    3bc4:	2a0003e0 	mov	w0, w0
    3bc8:	91006000 	add	x0, x0, #0x18
    3bcc:	d37cec00 	lsl	x0, x0, #4
    3bd0:	8b000020 	add	x0, x1, x0
    3bd4:	b94027a1 	ldr	w1, [x29,#36]
    3bd8:	b9001001 	str	w1, [x0,#16]
    3bdc:	52800000 	mov	w0, #0x0                   	// #0
    3be0:	f9400bf3 	ldr	x19, [sp,#16]
    3be4:	a8c57bfd 	ldp	x29, x30, [sp],#80
    3be8:	d65f03c0 	ret

0000000000003bec <cs_trigsrc>:
    3bec:	a9bb7bfd 	stp	x29, x30, [sp,#-80]!
    3bf0:	910003fd 	mov	x29, sp
    3bf4:	f9000bf3 	str	x19, [sp,#16]
    3bf8:	f90017a0 	str	x0, [x29,#40]
    3bfc:	b90027a1 	str	w1, [x29,#36]
    3c00:	f00001c0 	adrp	x0, 3e000 <__exidx_end>
    3c04:	910a8000 	add	x0, x0, #0x2a0
    3c08:	f9400000 	ldr	x0, [x0]
    3c0c:	f90027a0 	str	x0, [x29,#72]
    3c10:	1400002c 	b	3cc0 <cs_trigsrc+0xd4>
    3c14:	f94027a0 	ldr	x0, [x29,#72]
    3c18:	b9402400 	ldr	w0, [x0,#36]
    3c1c:	7100281f 	cmp	w0, #0xa
    3c20:	54000481 	b.ne	3cb0 <cs_trigsrc+0xc4>
    3c24:	b90047bf 	str	wzr, [x29,#68]
    3c28:	1400001b 	b	3c94 <cs_trigsrc+0xa8>
    3c2c:	f94027a1 	ldr	x1, [x29,#72]
    3c30:	b94047a0 	ldr	w0, [x29,#68]
    3c34:	91003800 	add	x0, x0, #0xe
    3c38:	d37cec00 	lsl	x0, x0, #4
    3c3c:	8b000020 	add	x0, x1, x0
    3c40:	f9400413 	ldr	x19, [x0,#8]
    3c44:	f94017a0 	ldr	x0, [x29,#40]
    3c48:	97fff5fd 	bl	143c <cs_get_device_struct>
    3c4c:	eb00027f 	cmp	x19, x0
    3c50:	540001c1 	b.ne	3c88 <cs_trigsrc+0x9c>
    3c54:	f94027a1 	ldr	x1, [x29,#72]
    3c58:	b94047a0 	ldr	w0, [x29,#68]
    3c5c:	91003800 	add	x0, x0, #0xe
    3c60:	d37cec00 	lsl	x0, x0, #4
    3c64:	8b000020 	add	x0, x1, x0
    3c68:	b9401001 	ldr	w1, [x0,#16]
    3c6c:	b94027a0 	ldr	w0, [x29,#36]
    3c70:	6b00003f 	cmp	w1, w0
    3c74:	540000a1 	b.ne	3c88 <cs_trigsrc+0x9c>
    3c78:	b94047a1 	ldr	w1, [x29,#68]
    3c7c:	f94027a0 	ldr	x0, [x29,#72]
    3c80:	97ffff17 	bl	38dc <cs_cti_trigsrc>
    3c84:	14000015 	b	3cd8 <cs_trigsrc+0xec>
    3c88:	b94047a0 	ldr	w0, [x29,#68]
    3c8c:	11000400 	add	w0, w0, #0x1
    3c90:	b90047a0 	str	w0, [x29,#68]
    3c94:	f94027a0 	ldr	x0, [x29,#72]
    3c98:	39438000 	ldrb	w0, [x0,#224]
    3c9c:	2a0003e1 	mov	w1, w0
    3ca0:	b94047a0 	ldr	w0, [x29,#68]
    3ca4:	6b00003f 	cmp	w1, w0
    3ca8:	54fffc28 	b.hi	3c2c <cs_trigsrc+0x40>
    3cac:	14000002 	b	3cb4 <cs_trigsrc+0xc8>
    3cb0:	d503201f 	nop
    3cb4:	f94027a0 	ldr	x0, [x29,#72]
    3cb8:	f9400000 	ldr	x0, [x0]
    3cbc:	f90027a0 	str	x0, [x29,#72]
    3cc0:	f94027a0 	ldr	x0, [x29,#72]
    3cc4:	f100001f 	cmp	x0, #0x0
    3cc8:	54fffa61 	b.ne	3c14 <cs_trigsrc+0x28>
    3ccc:	f9001bbf 	str	xzr, [x29,#48]
    3cd0:	b9003bbf 	str	wzr, [x29,#56]
    3cd4:	a94307a0 	ldp	x0, x1, [x29,#48]
    3cd8:	f9400bf3 	ldr	x19, [sp,#16]
    3cdc:	a8c57bfd 	ldp	x29, x30, [sp],#80
    3ce0:	d65f03c0 	ret

0000000000003ce4 <cs_trigdst>:
    3ce4:	a9bb7bfd 	stp	x29, x30, [sp,#-80]!
    3ce8:	910003fd 	mov	x29, sp
    3cec:	f9000bf3 	str	x19, [sp,#16]
    3cf0:	f90017a0 	str	x0, [x29,#40]
    3cf4:	b90027a1 	str	w1, [x29,#36]
    3cf8:	f00001c0 	adrp	x0, 3e000 <__exidx_end>
    3cfc:	910a8000 	add	x0, x0, #0x2a0
    3d00:	f9400000 	ldr	x0, [x0]
    3d04:	f90027a0 	str	x0, [x29,#72]
    3d08:	1400002c 	b	3db8 <cs_trigdst+0xd4>
    3d0c:	f94027a0 	ldr	x0, [x29,#72]
    3d10:	b9402400 	ldr	w0, [x0,#36]
    3d14:	7100281f 	cmp	w0, #0xa
    3d18:	54000481 	b.ne	3da8 <cs_trigdst+0xc4>
    3d1c:	b90047bf 	str	wzr, [x29,#68]
    3d20:	1400001b 	b	3d8c <cs_trigdst+0xa8>
    3d24:	f94027a1 	ldr	x1, [x29,#72]
    3d28:	b94047a0 	ldr	w0, [x29,#68]
    3d2c:	91006000 	add	x0, x0, #0x18
    3d30:	d37cec00 	lsl	x0, x0, #4
    3d34:	8b000020 	add	x0, x1, x0
    3d38:	f9400413 	ldr	x19, [x0,#8]
    3d3c:	f94017a0 	ldr	x0, [x29,#40]
    3d40:	97fff5bf 	bl	143c <cs_get_device_struct>
    3d44:	eb00027f 	cmp	x19, x0
    3d48:	540001c1 	b.ne	3d80 <cs_trigdst+0x9c>
    3d4c:	f94027a1 	ldr	x1, [x29,#72]
    3d50:	b94047a0 	ldr	w0, [x29,#68]
    3d54:	91006000 	add	x0, x0, #0x18
    3d58:	d37cec00 	lsl	x0, x0, #4
    3d5c:	8b000020 	add	x0, x1, x0
    3d60:	b9401001 	ldr	w1, [x0,#16]
    3d64:	b94027a0 	ldr	w0, [x29,#36]
    3d68:	6b00003f 	cmp	w1, w0
    3d6c:	540000a1 	b.ne	3d80 <cs_trigdst+0x9c>
    3d70:	b94047a1 	ldr	w1, [x29,#68]
    3d74:	f94027a0 	ldr	x0, [x29,#72]
    3d78:	97fffef6 	bl	3950 <cs_cti_trigdst>
    3d7c:	14000015 	b	3dd0 <cs_trigdst+0xec>
    3d80:	b94047a0 	ldr	w0, [x29,#68]
    3d84:	11000400 	add	w0, w0, #0x1
    3d88:	b90047a0 	str	w0, [x29,#68]
    3d8c:	f94027a0 	ldr	x0, [x29,#72]
    3d90:	39438000 	ldrb	w0, [x0,#224]
    3d94:	2a0003e1 	mov	w1, w0
    3d98:	b94047a0 	ldr	w0, [x29,#68]
    3d9c:	6b00003f 	cmp	w1, w0
    3da0:	54fffc28 	b.hi	3d24 <cs_trigdst+0x40>
    3da4:	14000002 	b	3dac <cs_trigdst+0xc8>
    3da8:	d503201f 	nop
    3dac:	f94027a0 	ldr	x0, [x29,#72]
    3db0:	f9400000 	ldr	x0, [x0]
    3db4:	f90027a0 	str	x0, [x29,#72]
    3db8:	f94027a0 	ldr	x0, [x29,#72]
    3dbc:	f100001f 	cmp	x0, #0x0
    3dc0:	54fffa61 	b.ne	3d0c <cs_trigdst+0x28>
    3dc4:	f9001bbf 	str	xzr, [x29,#48]
    3dc8:	b9003bbf 	str	wzr, [x29,#56]
    3dcc:	a94307a0 	ldp	x0, x1, [x29,#48]
    3dd0:	f9400bf3 	ldr	x19, [sp,#16]
    3dd4:	a8c57bfd 	ldp	x29, x30, [sp],#80
    3dd8:	d65f03c0 	ret

0000000000003ddc <cs_ect_get_channel>:
    3ddc:	a9be7bfd 	stp	x29, x30, [sp,#-32]!
    3de0:	910003fd 	mov	x29, sp
    3de4:	d2805200 	mov	x0, #0x290                 	// #656
    3de8:	9400506a 	bl	17f90 <malloc>
    3dec:	f9000fa0 	str	x0, [x29,#24]
    3df0:	f9400fa0 	ldr	x0, [x29,#24]
    3df4:	f100001f 	cmp	x0, #0x0
    3df8:	54000161 	b.ne	3e24 <cs_ect_get_channel+0x48>
    3dfc:	f0000140 	adrp	x0, 2e000 <__func__.5451+0x38>
    3e00:	9111c002 	add	x2, x0, #0x470
    3e04:	f0000140 	adrp	x0, 2e000 <__func__.5451+0x38>
    3e08:	911ea001 	add	x1, x0, #0x7a8
    3e0c:	f0000140 	adrp	x0, 2e000 <__func__.5451+0x38>
    3e10:	91058000 	add	x0, x0, #0x160
    3e14:	aa0203e3 	mov	x3, x2
    3e18:	aa0103e2 	mov	x2, x1
    3e1c:	52803b41 	mov	w1, #0x1da                 	// #474
    3e20:	94004796 	bl	15c78 <__assert_func>
    3e24:	d2805202 	mov	x2, #0x290                 	// #656
    3e28:	52800001 	mov	w1, #0x0                   	// #0
    3e2c:	f9400fa0 	ldr	x0, [x29,#24]
    3e30:	94005344 	bl	18b40 <memset>
    3e34:	f9400fa0 	ldr	x0, [x29,#24]
    3e38:	a8c27bfd 	ldp	x29, x30, [sp],#32
    3e3c:	d65f03c0 	ret

0000000000003e40 <cs_ect_add_trigsrc>:
    3e40:	a9bc7bfd 	stp	x29, x30, [sp,#-64]!
    3e44:	910003fd 	mov	x29, sp
    3e48:	f90017a0 	str	x0, [x29,#40]
    3e4c:	a9018ba1 	stp	x1, x2, [x29,#24]
    3e50:	f94017a0 	ldr	x0, [x29,#40]
    3e54:	f9001fa0 	str	x0, [x29,#56]
    3e58:	f9401fa0 	ldr	x0, [x29,#56]
    3e5c:	b9400000 	ldr	w0, [x0]
    3e60:	71003c1f 	cmp	w0, #0xf
    3e64:	54000061 	b.ne	3e70 <cs_ect_add_trigsrc+0x30>
    3e68:	12800000 	mov	w0, #0xffffffff            	// #-1
    3e6c:	14000011 	b	3eb0 <cs_ect_add_trigsrc+0x70>
    3e70:	f9401fa0 	ldr	x0, [x29,#56]
    3e74:	b9400000 	ldr	w0, [x0]
    3e78:	11000402 	add	w2, w0, #0x1
    3e7c:	f9401fa1 	ldr	x1, [x29,#56]
    3e80:	b9000022 	str	w2, [x1]
    3e84:	f9401fa1 	ldr	x1, [x29,#56]
    3e88:	2a0003e0 	mov	w0, w0
    3e8c:	91000400 	add	x0, x0, #0x1
    3e90:	d37cec00 	lsl	x0, x0, #4
    3e94:	8b000022 	add	x2, x1, x0
    3e98:	a94187a0 	ldp	x0, x1, [x29,#24]
    3e9c:	a9000440 	stp	x0, x1, [x2]
    3ea0:	f9400fa0 	ldr	x0, [x29,#24]
    3ea4:	aa0003e1 	mov	x1, x0
    3ea8:	f9401fa0 	ldr	x0, [x29,#56]
    3eac:	97fffa7b 	bl	2898 <cs_ect_add_cti>
    3eb0:	a8c47bfd 	ldp	x29, x30, [sp],#64
    3eb4:	d65f03c0 	ret

0000000000003eb8 <cs_ect_add_trigdst>:
    3eb8:	a9bc7bfd 	stp	x29, x30, [sp,#-64]!
    3ebc:	910003fd 	mov	x29, sp
    3ec0:	f90017a0 	str	x0, [x29,#40]
    3ec4:	a9018ba1 	stp	x1, x2, [x29,#24]
    3ec8:	f94017a0 	ldr	x0, [x29,#40]
    3ecc:	f9001fa0 	str	x0, [x29,#56]
    3ed0:	f9401fa0 	ldr	x0, [x29,#56]
    3ed4:	b9400400 	ldr	w0, [x0,#4]
    3ed8:	71003c1f 	cmp	w0, #0xf
    3edc:	54000061 	b.ne	3ee8 <cs_ect_add_trigdst+0x30>
    3ee0:	12800000 	mov	w0, #0xffffffff            	// #-1
    3ee4:	14000011 	b	3f28 <cs_ect_add_trigdst+0x70>
    3ee8:	f9401fa0 	ldr	x0, [x29,#56]
    3eec:	b9400400 	ldr	w0, [x0,#4]
    3ef0:	11000402 	add	w2, w0, #0x1
    3ef4:	f9401fa1 	ldr	x1, [x29,#56]
    3ef8:	b9000422 	str	w2, [x1,#4]
    3efc:	f9401fa1 	ldr	x1, [x29,#56]
    3f00:	2a0003e0 	mov	w0, w0
    3f04:	91004400 	add	x0, x0, #0x11
    3f08:	d37cec00 	lsl	x0, x0, #4
    3f0c:	8b000022 	add	x2, x1, x0
    3f10:	a94187a0 	ldp	x0, x1, [x29,#24]
    3f14:	a9000440 	stp	x0, x1, [x2]
    3f18:	f9400fa0 	ldr	x0, [x29,#24]
    3f1c:	aa0003e1 	mov	x1, x0
    3f20:	f9401fa0 	ldr	x0, [x29,#56]
    3f24:	97fffa5d 	bl	2898 <cs_ect_add_cti>
    3f28:	a8c47bfd 	ldp	x29, x30, [sp],#64
    3f2c:	d65f03c0 	ret

0000000000003f30 <cs_ect_diag>:
    3f30:	a9bd7bfd 	stp	x29, x30, [sp,#-48]!
    3f34:	910003fd 	mov	x29, sp
    3f38:	f9000fa0 	str	x0, [x29,#24]
    3f3c:	f9400fa0 	ldr	x0, [x29,#24]
    3f40:	f90013a0 	str	x0, [x29,#32]
    3f44:	f0000140 	adrp	x0, 2e000 <__func__.5451+0x38>
    3f48:	91120000 	add	x0, x0, #0x480
    3f4c:	97fff3fb 	bl	f38 <_diagf>
    3f50:	f0000140 	adrp	x0, 2e000 <__func__.5451+0x38>
    3f54:	91126000 	add	x0, x0, #0x498
    3f58:	97fff3f8 	bl	f38 <_diagf>
    3f5c:	b9002fbf 	str	wzr, [x29,#44]
    3f60:	14000015 	b	3fb4 <cs_ect_diag+0x84>
    3f64:	f94013a1 	ldr	x1, [x29,#32]
    3f68:	b9802fa0 	ldrsw	x0, [x29,#44]
    3f6c:	91000400 	add	x0, x0, #0x1
    3f70:	d37cec00 	lsl	x0, x0, #4
    3f74:	8b000020 	add	x0, x1, x0
    3f78:	f9400003 	ldr	x3, [x0]
    3f7c:	f94013a1 	ldr	x1, [x29,#32]
    3f80:	b9802fa0 	ldrsw	x0, [x29,#44]
    3f84:	91000400 	add	x0, x0, #0x1
    3f88:	d37cec00 	lsl	x0, x0, #4
    3f8c:	8b000020 	add	x0, x1, x0
    3f90:	b9400801 	ldr	w1, [x0,#8]
    3f94:	f0000140 	adrp	x0, 2e000 <__func__.5451+0x38>
    3f98:	9112c000 	add	x0, x0, #0x4b0
    3f9c:	2a0103e2 	mov	w2, w1
    3fa0:	aa0303e1 	mov	x1, x3
    3fa4:	97fff3e5 	bl	f38 <_diagf>
    3fa8:	b9402fa0 	ldr	w0, [x29,#44]
    3fac:	11000400 	add	w0, w0, #0x1
    3fb0:	b9002fa0 	str	w0, [x29,#44]
    3fb4:	f94013a0 	ldr	x0, [x29,#32]
    3fb8:	b9400001 	ldr	w1, [x0]
    3fbc:	b9402fa0 	ldr	w0, [x29,#44]
    3fc0:	6b00003f 	cmp	w1, w0
    3fc4:	54fffd08 	b.hi	3f64 <cs_ect_diag+0x34>
    3fc8:	f0000140 	adrp	x0, 2e000 <__func__.5451+0x38>
    3fcc:	91130000 	add	x0, x0, #0x4c0
    3fd0:	97fff3da 	bl	f38 <_diagf>
    3fd4:	b9002fbf 	str	wzr, [x29,#44]
    3fd8:	14000015 	b	402c <cs_ect_diag+0xfc>
    3fdc:	f94013a1 	ldr	x1, [x29,#32]
    3fe0:	b9802fa0 	ldrsw	x0, [x29,#44]
    3fe4:	91004400 	add	x0, x0, #0x11
    3fe8:	d37cec00 	lsl	x0, x0, #4
    3fec:	8b000020 	add	x0, x1, x0
    3ff0:	f9400003 	ldr	x3, [x0]
    3ff4:	f94013a1 	ldr	x1, [x29,#32]
    3ff8:	b9802fa0 	ldrsw	x0, [x29,#44]
    3ffc:	91004400 	add	x0, x0, #0x11
    4000:	d37cec00 	lsl	x0, x0, #4
    4004:	8b000020 	add	x0, x1, x0
    4008:	b9400801 	ldr	w1, [x0,#8]
    400c:	d0000140 	adrp	x0, 2e000 <__func__.5451+0x38>
    4010:	9112c000 	add	x0, x0, #0x4b0
    4014:	2a0103e2 	mov	w2, w1
    4018:	aa0303e1 	mov	x1, x3
    401c:	97fff3c7 	bl	f38 <_diagf>
    4020:	b9402fa0 	ldr	w0, [x29,#44]
    4024:	11000400 	add	w0, w0, #0x1
    4028:	b9002fa0 	str	w0, [x29,#44]
    402c:	f94013a0 	ldr	x0, [x29,#32]
    4030:	b9400401 	ldr	w1, [x0,#4]
    4034:	b9402fa0 	ldr	w0, [x29,#44]
    4038:	6b00003f 	cmp	w1, w0
    403c:	54fffd08 	b.hi	3fdc <cs_ect_diag+0xac>
    4040:	d0000140 	adrp	x0, 2e000 <__func__.5451+0x38>
    4044:	91138000 	add	x0, x0, #0x4e0
    4048:	97fff3bc 	bl	f38 <_diagf>
    404c:	b9002fbf 	str	wzr, [x29,#44]
    4050:	1400000b 	b	407c <cs_ect_diag+0x14c>
    4054:	f94013a0 	ldr	x0, [x29,#32]
    4058:	b9802fa1 	ldrsw	x1, [x29,#44]
    405c:	91010821 	add	x1, x1, #0x42
    4060:	f8617801 	ldr	x1, [x0,x1,lsl #3]
    4064:	d0000140 	adrp	x0, 2e000 <__func__.5451+0x38>
    4068:	9113c000 	add	x0, x0, #0x4f0
    406c:	97fff3b3 	bl	f38 <_diagf>
    4070:	b9402fa0 	ldr	w0, [x29,#44]
    4074:	11000400 	add	w0, w0, #0x1
    4078:	b9002fa0 	str	w0, [x29,#44]
    407c:	f94013a0 	ldr	x0, [x29,#32]
    4080:	b9400801 	ldr	w1, [x0,#8]
    4084:	b9402fa0 	ldr	w0, [x29,#44]
    4088:	6b00003f 	cmp	w1, w0
    408c:	54fffe48 	b.hi	4054 <cs_ect_diag+0x124>
    4090:	52800000 	mov	w0, #0x0                   	// #0
    4094:	a8c37bfd 	ldp	x29, x30, [sp],#48
    4098:	d65f03c0 	ret

000000000000409c <cs_ect_configure>:
    409c:	a9ba7bfd 	stp	x29, x30, [sp,#-96]!
    40a0:	910003fd 	mov	x29, sp
    40a4:	f9000fa0 	str	x0, [x29,#24]
    40a8:	f9400fa0 	ldr	x0, [x29,#24]
    40ac:	f90023a0 	str	x0, [x29,#64]
    40b0:	f94023a0 	ldr	x0, [x29,#64]
    40b4:	f100001f 	cmp	x0, #0x0
    40b8:	54000161 	b.ne	40e4 <cs_ect_configure+0x48>
    40bc:	d0000140 	adrp	x0, 2e000 <__func__.5451+0x38>
    40c0:	9111c002 	add	x2, x0, #0x470
    40c4:	d0000140 	adrp	x0, 2e000 <__func__.5451+0x38>
    40c8:	911f0001 	add	x1, x0, #0x7c0
    40cc:	d0000140 	adrp	x0, 2e000 <__func__.5451+0x38>
    40d0:	91058000 	add	x0, x0, #0x160
    40d4:	aa0203e3 	mov	x3, x2
    40d8:	aa0103e2 	mov	x2, x1
    40dc:	52804221 	mov	w1, #0x211                 	// #529
    40e0:	940046e6 	bl	15c78 <__assert_func>
    40e4:	f94023a0 	ldr	x0, [x29,#64]
    40e8:	b9400000 	ldr	w0, [x0]
    40ec:	7100001f 	cmp	w0, #0x0
    40f0:	540000a1 	b.ne	4104 <cs_ect_configure+0x68>
    40f4:	d0000140 	adrp	x0, 2e000 <__func__.5451+0x38>
    40f8:	9113e000 	add	x0, x0, #0x4f8
    40fc:	97fff446 	bl	1214 <cs_report_error>
    4100:	140000d3 	b	444c <cs_ect_configure+0x3b0>
    4104:	f94023a0 	ldr	x0, [x29,#64]
    4108:	b9400400 	ldr	w0, [x0,#4]
    410c:	7100001f 	cmp	w0, #0x0
    4110:	540000a1 	b.ne	4124 <cs_ect_configure+0x88>
    4114:	d0000140 	adrp	x0, 2e000 <__func__.5451+0x38>
    4118:	91146000 	add	x0, x0, #0x518
    411c:	97fff43e 	bl	1214 <cs_report_error>
    4120:	140000cb 	b	444c <cs_ect_configure+0x3b0>
    4124:	b9005fbf 	str	wzr, [x29,#92]
    4128:	1400000a 	b	4150 <cs_ect_configure+0xb4>
    412c:	f94023a0 	ldr	x0, [x29,#64]
    4130:	b9405fa1 	ldr	w1, [x29,#92]
    4134:	91010821 	add	x1, x1, #0x42
    4138:	f8617800 	ldr	x0, [x0,x1,lsl #3]
    413c:	97fff4c0 	bl	143c <cs_get_device_struct>
    4140:	97fff8f6 	bl	2518 <_cs_unlock>
    4144:	b9405fa0 	ldr	w0, [x29,#92]
    4148:	11000400 	add	w0, w0, #0x1
    414c:	b9005fa0 	str	w0, [x29,#92]
    4150:	f94023a0 	ldr	x0, [x29,#64]
    4154:	b9400801 	ldr	w1, [x0,#8]
    4158:	b9405fa0 	ldr	w0, [x29,#92]
    415c:	6b00003f 	cmp	w1, w0
    4160:	54fffe68 	b.hi	412c <cs_ect_configure+0x90>
    4164:	f9400fa0 	ldr	x0, [x29,#24]
    4168:	97fff987 	bl	2784 <cs_ect_is_local>
    416c:	b9003fa0 	str	w0, [x29,#60]
    4170:	b9403fa0 	ldr	w0, [x29,#60]
    4174:	7100001f 	cmp	w0, #0x0
    4178:	54000540 	b.eq	4220 <cs_ect_configure+0x184>
    417c:	f94023a0 	ldr	x0, [x29,#64]
    4180:	f9400800 	ldr	x0, [x0,#16]
    4184:	97fff4ae 	bl	143c <cs_get_device_struct>
    4188:	f9001ba0 	str	x0, [x29,#48]
    418c:	f94023a0 	ldr	x0, [x29,#64]
    4190:	f9408800 	ldr	x0, [x0,#272]
    4194:	97fff4aa 	bl	143c <cs_get_device_struct>
    4198:	aa0003e1 	mov	x1, x0
    419c:	f9401ba0 	ldr	x0, [x29,#48]
    41a0:	eb00003f 	cmp	x1, x0
    41a4:	54000160 	b.eq	41d0 <cs_ect_configure+0x134>
    41a8:	d0000140 	adrp	x0, 2e000 <__func__.5451+0x38>
    41ac:	91150002 	add	x2, x0, #0x540
    41b0:	d0000140 	adrp	x0, 2e000 <__func__.5451+0x38>
    41b4:	911f0001 	add	x1, x0, #0x7c0
    41b8:	d0000140 	adrp	x0, 2e000 <__func__.5451+0x38>
    41bc:	91058000 	add	x0, x0, #0x160
    41c0:	aa0203e3 	mov	x3, x2
    41c4:	aa0103e2 	mov	x2, x1
    41c8:	528044a1 	mov	w1, #0x225                 	// #549
    41cc:	940046ab 	bl	15c78 <__assert_func>
    41d0:	f9401ba0 	ldr	x0, [x29,#48]
    41d4:	97fff9dc 	bl	2944 <cs_cti_unused_channels>
    41d8:	b9002fa0 	str	w0, [x29,#44]
    41dc:	b9402fa0 	ldr	w0, [x29,#44]
    41e0:	7100001f 	cmp	w0, #0x0
    41e4:	540000a1 	b.ne	41f8 <cs_ect_configure+0x15c>
    41e8:	d0000140 	adrp	x0, 2e000 <__func__.5451+0x38>
    41ec:	91158000 	add	x0, x0, #0x560
    41f0:	97fff409 	bl	1214 <cs_report_error>
    41f4:	14000096 	b	444c <cs_ect_configure+0x3b0>
    41f8:	b9402fa0 	ldr	w0, [x29,#44]
    41fc:	4b0003e1 	neg	w1, w0
    4200:	b9402fa0 	ldr	w0, [x29,#44]
    4204:	0a000020 	and	w0, w1, w0
    4208:	b9005ba0 	str	w0, [x29,#88]
    420c:	b9405ba2 	ldr	w2, [x29,#88]
    4210:	52802801 	mov	w1, #0x140                 	// #320
    4214:	f9401ba0 	ldr	x0, [x29,#48]
    4218:	97fff719 	bl	1e7c <_cs_clear>
    421c:	14000040 	b	431c <cs_ect_configure+0x280>
    4220:	528001e0 	mov	w0, #0xf                   	// #15
    4224:	b9004fa0 	str	w0, [x29,#76]
    4228:	b9005fbf 	str	wzr, [x29,#92]
    422c:	1400000d 	b	4260 <cs_ect_configure+0x1c4>
    4230:	f94023a0 	ldr	x0, [x29,#64]
    4234:	b9405fa1 	ldr	w1, [x29,#92]
    4238:	91010821 	add	x1, x1, #0x42
    423c:	f8617800 	ldr	x0, [x0,x1,lsl #3]
    4240:	97fff9c1 	bl	2944 <cs_cti_unused_channels>
    4244:	2a0003e1 	mov	w1, w0
    4248:	b9404fa0 	ldr	w0, [x29,#76]
    424c:	0a010000 	and	w0, w0, w1
    4250:	b9004fa0 	str	w0, [x29,#76]
    4254:	b9405fa0 	ldr	w0, [x29,#92]
    4258:	11000400 	add	w0, w0, #0x1
    425c:	b9005fa0 	str	w0, [x29,#92]
    4260:	f94023a0 	ldr	x0, [x29,#64]
    4264:	b9400801 	ldr	w1, [x0,#8]
    4268:	b9405fa0 	ldr	w0, [x29,#92]
    426c:	6b00003f 	cmp	w1, w0
    4270:	54fffe08 	b.hi	4230 <cs_ect_configure+0x194>
    4274:	b9404fa0 	ldr	w0, [x29,#76]
    4278:	7100001f 	cmp	w0, #0x0
    427c:	540000a1 	b.ne	4290 <cs_ect_configure+0x1f4>
    4280:	d0000140 	adrp	x0, 2e000 <__func__.5451+0x38>
    4284:	9115e000 	add	x0, x0, #0x578
    4288:	97fff3e3 	bl	1214 <cs_report_error>
    428c:	14000070 	b	444c <cs_ect_configure+0x3b0>
    4290:	d00001c0 	adrp	x0, 3e000 <__exidx_end>
    4294:	910a8000 	add	x0, x0, #0x2a0
    4298:	f9400000 	ldr	x0, [x0]
    429c:	f9002ba0 	str	x0, [x29,#80]
    42a0:	14000010 	b	42e0 <cs_ect_configure+0x244>
    42a4:	f9402ba0 	ldr	x0, [x29,#80]
    42a8:	b9402400 	ldr	w0, [x0,#36]
    42ac:	7100281f 	cmp	w0, #0xa
    42b0:	54000101 	b.ne	42d0 <cs_ect_configure+0x234>
    42b4:	f9402ba0 	ldr	x0, [x29,#80]
    42b8:	97fff996 	bl	2910 <cs_cti_used_global_channels>
    42bc:	2a2003e0 	mvn	w0, w0
    42c0:	b9404fa1 	ldr	w1, [x29,#76]
    42c4:	0a000020 	and	w0, w1, w0
    42c8:	b9004fa0 	str	w0, [x29,#76]
    42cc:	14000002 	b	42d4 <cs_ect_configure+0x238>
    42d0:	d503201f 	nop
    42d4:	f9402ba0 	ldr	x0, [x29,#80]
    42d8:	f9400000 	ldr	x0, [x0]
    42dc:	f9002ba0 	str	x0, [x29,#80]
    42e0:	f9402ba0 	ldr	x0, [x29,#80]
    42e4:	f100001f 	cmp	x0, #0x0
    42e8:	54fffde1 	b.ne	42a4 <cs_ect_configure+0x208>
    42ec:	b9404fa0 	ldr	w0, [x29,#76]
    42f0:	7100001f 	cmp	w0, #0x0
    42f4:	540000a1 	b.ne	4308 <cs_ect_configure+0x26c>
    42f8:	d0000140 	adrp	x0, 2e000 <__func__.5451+0x38>
    42fc:	91168000 	add	x0, x0, #0x5a0
    4300:	97fff3c5 	bl	1214 <cs_report_error>
    4304:	14000052 	b	444c <cs_ect_configure+0x3b0>
    4308:	b9404fa0 	ldr	w0, [x29,#76]
    430c:	4b0003e1 	neg	w1, w0
    4310:	b9404fa0 	ldr	w0, [x29,#76]
    4314:	0a000020 	and	w0, w1, w0
    4318:	b9005ba0 	str	w0, [x29,#88]
    431c:	b9005fbf 	str	wzr, [x29,#92]
    4320:	14000018 	b	4380 <cs_ect_configure+0x2e4>
    4324:	f94023a1 	ldr	x1, [x29,#64]
    4328:	b9405fa0 	ldr	w0, [x29,#92]
    432c:	91000400 	add	x0, x0, #0x1
    4330:	d37cec00 	lsl	x0, x0, #4
    4334:	8b000020 	add	x0, x1, x0
    4338:	f9400000 	ldr	x0, [x0]
    433c:	97fff440 	bl	143c <cs_get_device_struct>
    4340:	aa0003e3 	mov	x3, x0
    4344:	f94023a1 	ldr	x1, [x29,#64]
    4348:	b9405fa0 	ldr	w0, [x29,#92]
    434c:	91000400 	add	x0, x0, #0x1
    4350:	d37cec00 	lsl	x0, x0, #4
    4354:	8b000020 	add	x0, x1, x0
    4358:	b9400800 	ldr	w0, [x0,#8]
    435c:	11002000 	add	w0, w0, #0x8
    4360:	531e7400 	lsl	w0, w0, #2
    4364:	b9405ba2 	ldr	w2, [x29,#88]
    4368:	2a0003e1 	mov	w1, w0
    436c:	aa0303e0 	mov	x0, x3
    4370:	97fff6a6 	bl	1e08 <_cs_set>
    4374:	b9405fa0 	ldr	w0, [x29,#92]
    4378:	11000400 	add	w0, w0, #0x1
    437c:	b9005fa0 	str	w0, [x29,#92]
    4380:	f94023a0 	ldr	x0, [x29,#64]
    4384:	b9400001 	ldr	w1, [x0]
    4388:	b9405fa0 	ldr	w0, [x29,#92]
    438c:	6b00003f 	cmp	w1, w0
    4390:	54fffca8 	b.hi	4324 <cs_ect_configure+0x288>
    4394:	b9005fbf 	str	wzr, [x29,#92]
    4398:	14000018 	b	43f8 <cs_ect_configure+0x35c>
    439c:	f94023a1 	ldr	x1, [x29,#64]
    43a0:	b9405fa0 	ldr	w0, [x29,#92]
    43a4:	91004400 	add	x0, x0, #0x11
    43a8:	d37cec00 	lsl	x0, x0, #4
    43ac:	8b000020 	add	x0, x1, x0
    43b0:	f9400000 	ldr	x0, [x0]
    43b4:	97fff422 	bl	143c <cs_get_device_struct>
    43b8:	aa0003e3 	mov	x3, x0
    43bc:	f94023a1 	ldr	x1, [x29,#64]
    43c0:	b9405fa0 	ldr	w0, [x29,#92]
    43c4:	91004400 	add	x0, x0, #0x11
    43c8:	d37cec00 	lsl	x0, x0, #4
    43cc:	8b000020 	add	x0, x1, x0
    43d0:	b9400800 	ldr	w0, [x0,#8]
    43d4:	1100a000 	add	w0, w0, #0x28
    43d8:	531e7400 	lsl	w0, w0, #2
    43dc:	b9405ba2 	ldr	w2, [x29,#88]
    43e0:	2a0003e1 	mov	w1, w0
    43e4:	aa0303e0 	mov	x0, x3
    43e8:	97fff688 	bl	1e08 <_cs_set>
    43ec:	b9405fa0 	ldr	w0, [x29,#92]
    43f0:	11000400 	add	w0, w0, #0x1
    43f4:	b9005fa0 	str	w0, [x29,#92]
    43f8:	f94023a0 	ldr	x0, [x29,#64]
    43fc:	b9400401 	ldr	w1, [x0,#4]
    4400:	b9405fa0 	ldr	w0, [x29,#92]
    4404:	6b00003f 	cmp	w1, w0
    4408:	54fffca8 	b.hi	439c <cs_ect_configure+0x300>
    440c:	b9005fbf 	str	wzr, [x29,#92]
    4410:	14000009 	b	4434 <cs_ect_configure+0x398>
    4414:	f94023a0 	ldr	x0, [x29,#64]
    4418:	b9405fa1 	ldr	w1, [x29,#92]
    441c:	91010821 	add	x1, x1, #0x42
    4420:	f8617800 	ldr	x0, [x0,x1,lsl #3]
    4424:	97fff951 	bl	2968 <cs_cti_enable>
    4428:	b9405fa0 	ldr	w0, [x29,#92]
    442c:	11000400 	add	w0, w0, #0x1
    4430:	b9005fa0 	str	w0, [x29,#92]
    4434:	f94023a0 	ldr	x0, [x29,#64]
    4438:	b9400801 	ldr	w1, [x0,#8]
    443c:	b9405fa0 	ldr	w0, [x29,#92]
    4440:	6b00003f 	cmp	w1, w0
    4444:	54fffe88 	b.hi	4414 <cs_ect_configure+0x378>
    4448:	52800000 	mov	w0, #0x0                   	// #0
    444c:	a8c67bfd 	ldp	x29, x30, [sp],#96
    4450:	d65f03c0 	ret

0000000000004454 <cs_ect_reset>:
    4454:	a9be7bfd 	stp	x29, x30, [sp,#-32]!
    4458:	910003fd 	mov	x29, sp
    445c:	b9001fbf 	str	wzr, [x29,#28]
    4460:	d00001c0 	adrp	x0, 3e000 <__exidx_end>
    4464:	910a8000 	add	x0, x0, #0x2a0
    4468:	f9400000 	ldr	x0, [x0]
    446c:	f9000ba0 	str	x0, [x29,#16]
    4470:	14000010 	b	44b0 <cs_ect_reset+0x5c>
    4474:	f9400ba0 	ldr	x0, [x29,#16]
    4478:	b9402400 	ldr	w0, [x0,#36]
    447c:	7100281f 	cmp	w0, #0xa
    4480:	54000101 	b.ne	44a0 <cs_ect_reset+0x4c>
    4484:	f9400ba0 	ldr	x0, [x29,#16]
    4488:	97fffb18 	bl	30e8 <cs_cti_reset>
    448c:	b9001fa0 	str	w0, [x29,#28]
    4490:	b9401fa0 	ldr	w0, [x29,#28]
    4494:	7100001f 	cmp	w0, #0x0
    4498:	54000141 	b.ne	44c0 <cs_ect_reset+0x6c>
    449c:	14000002 	b	44a4 <cs_ect_reset+0x50>
    44a0:	d503201f 	nop
    44a4:	f9400ba0 	ldr	x0, [x29,#16]
    44a8:	f9400000 	ldr	x0, [x0]
    44ac:	f9000ba0 	str	x0, [x29,#16]
    44b0:	f9400ba0 	ldr	x0, [x29,#16]
    44b4:	f100001f 	cmp	x0, #0x0
    44b8:	54fffde1 	b.ne	4474 <cs_ect_reset+0x20>
    44bc:	14000002 	b	44c4 <cs_ect_reset+0x70>
    44c0:	d503201f 	nop
    44c4:	b9401fa0 	ldr	w0, [x29,#28]
    44c8:	a8c27bfd 	ldp	x29, x30, [sp],#32
    44cc:	d65f03c0 	ret

00000000000044d0 <cs_debug_v8_pc_sample>:
    44d0:	a9bc7bfd 	stp	x29, x30, [sp,#-64]!
    44d4:	910003fd 	mov	x29, sp
    44d8:	f90017a0 	str	x0, [x29,#40]
    44dc:	f90013a1 	str	x1, [x29,#32]
    44e0:	f9000fa2 	str	x2, [x29,#24]
    44e4:	f9000ba3 	str	x3, [x29,#16]
    44e8:	b9003fbf 	str	wzr, [x29,#60]
    44ec:	f94017a0 	ldr	x0, [x29,#40]
    44f0:	b940e400 	ldr	w0, [x0,#228]
    44f4:	12000c00 	and	w0, w0, #0xf
    44f8:	7100001f 	cmp	w0, #0x0
    44fc:	54000061 	b.ne	4508 <cs_debug_v8_pc_sample+0x38>
    4500:	12800000 	mov	w0, #0xffffffff            	// #-1
    4504:	14000032 	b	45cc <cs_debug_v8_pc_sample+0xfc>
    4508:	52806281 	mov	w1, #0x314                 	// #788
    450c:	f94017a0 	ldr	x0, [x29,#40]
    4510:	97fff446 	bl	1628 <_cs_read>
    4514:	b9003ba0 	str	w0, [x29,#56]
    4518:	b9403ba1 	ldr	w1, [x29,#56]
    451c:	52800ea0 	mov	w0, #0x75                  	// #117
    4520:	0a000020 	and	w0, w1, w0
    4524:	7100041f 	cmp	w0, #0x1
    4528:	54000060 	b.eq	4534 <cs_debug_v8_pc_sample+0x64>
    452c:	12800000 	mov	w0, #0xffffffff            	// #-1
    4530:	14000027 	b	45cc <cs_debug_v8_pc_sample+0xfc>
    4534:	52801401 	mov	w1, #0xa0                  	// #160
    4538:	f94017a0 	ldr	x0, [x29,#40]
    453c:	97fff43b 	bl	1628 <_cs_read>
    4540:	b9003ba0 	str	w0, [x29,#56]
    4544:	f94013a0 	ldr	x0, [x29,#32]
    4548:	f100001f 	cmp	x0, #0x0
    454c:	54000100 	b.eq	456c <cs_debug_v8_pc_sample+0x9c>
    4550:	b9403fa1 	ldr	w1, [x29,#60]
    4554:	b9403ba0 	ldr	w0, [x29,#56]
    4558:	2a000020 	orr	w0, w1, w0
    455c:	b9003fa0 	str	w0, [x29,#60]
    4560:	f94013a0 	ldr	x0, [x29,#32]
    4564:	b9403fa1 	ldr	w1, [x29,#60]
    4568:	b9000001 	str	w1, [x0]
    456c:	f9400fa0 	ldr	x0, [x29,#24]
    4570:	f100001f 	cmp	x0, #0x0
    4574:	540000e0 	b.eq	4590 <cs_debug_v8_pc_sample+0xc0>
    4578:	52801481 	mov	w1, #0xa4                  	// #164
    457c:	f94017a0 	ldr	x0, [x29,#40]
    4580:	97fff42a 	bl	1628 <_cs_read>
    4584:	2a0003e1 	mov	w1, w0
    4588:	f9400fa0 	ldr	x0, [x29,#24]
    458c:	b9000001 	str	w1, [x0]
    4590:	f9400ba0 	ldr	x0, [x29,#16]
    4594:	f100001f 	cmp	x0, #0x0
    4598:	54000180 	b.eq	45c8 <cs_debug_v8_pc_sample+0xf8>
    459c:	f94017a0 	ldr	x0, [x29,#40]
    45a0:	b940e400 	ldr	w0, [x0,#228]
    45a4:	12000c00 	and	w0, w0, #0xf
    45a8:	71000c1f 	cmp	w0, #0x3
    45ac:	540000e1 	b.ne	45c8 <cs_debug_v8_pc_sample+0xf8>
    45b0:	52801501 	mov	w1, #0xa8                  	// #168
    45b4:	f94017a0 	ldr	x0, [x29,#40]
    45b8:	97fff41c 	bl	1628 <_cs_read>
    45bc:	2a0003e1 	mov	w1, w0
    45c0:	f9400ba0 	ldr	x0, [x29,#16]
    45c4:	b9000001 	str	w1, [x0]
    45c8:	52800000 	mov	w0, #0x0                   	// #0
    45cc:	a8c47bfd 	ldp	x29, x30, [sp],#64
    45d0:	d65f03c0 	ret

00000000000045d4 <cs_debug_get_pc_sample>:
    45d4:	a9bc7bfd 	stp	x29, x30, [sp,#-64]!
    45d8:	910003fd 	mov	x29, sp
    45dc:	f90017a0 	str	x0, [x29,#40]
    45e0:	f90013a1 	str	x1, [x29,#32]
    45e4:	f9000fa2 	str	x2, [x29,#24]
    45e8:	f9000ba3 	str	x3, [x29,#16]
    45ec:	f94017a0 	ldr	x0, [x29,#40]
    45f0:	97fff393 	bl	143c <cs_get_device_struct>
    45f4:	f9001fa0 	str	x0, [x29,#56]
    45f8:	f9401fa0 	ldr	x0, [x29,#56]
    45fc:	b9402400 	ldr	w0, [x0,#36]
    4600:	71002c1f 	cmp	w0, #0xb
    4604:	54000160 	b.eq	4630 <cs_debug_get_pc_sample+0x5c>
    4608:	d0000140 	adrp	x0, 2e000 <__func__.5451+0x38>
    460c:	911f6002 	add	x2, x0, #0x7d8
    4610:	d0000140 	adrp	x0, 2e000 <__func__.5451+0x38>
    4614:	91206001 	add	x1, x0, #0x818
    4618:	d0000140 	adrp	x0, 2e000 <__func__.5451+0x38>
    461c:	911fe000 	add	x0, x0, #0x7f8
    4620:	aa0203e3 	mov	x3, x2
    4624:	aa0103e2 	mov	x2, x1
    4628:	528009a1 	mov	w1, #0x4d                  	// #77
    462c:	94004593 	bl	15c78 <__assert_func>
    4630:	f9401fa0 	ldr	x0, [x29,#56]
    4634:	b940ec00 	ldr	w0, [x0,#236]
    4638:	7100201f 	cmp	w0, #0x8
    463c:	540000e1 	b.ne	4658 <cs_debug_get_pc_sample+0x84>
    4640:	f9400ba3 	ldr	x3, [x29,#16]
    4644:	f9400fa2 	ldr	x2, [x29,#24]
    4648:	f94013a1 	ldr	x1, [x29,#32]
    464c:	f9401fa0 	ldr	x0, [x29,#56]
    4650:	97ffffa0 	bl	44d0 <cs_debug_v8_pc_sample>
    4654:	14000030 	b	4714 <cs_debug_get_pc_sample+0x140>
    4658:	f9401fa0 	ldr	x0, [x29,#56]
    465c:	b940e800 	ldr	w0, [x0,#232]
    4660:	7100001f 	cmp	w0, #0x0
    4664:	54000560 	b.eq	4710 <cs_debug_get_pc_sample+0x13c>
    4668:	f9401fa0 	ldr	x0, [x29,#56]
    466c:	b940e800 	ldr	w0, [x0,#232]
    4670:	2a0003e1 	mov	w1, w0
    4674:	f9401fa0 	ldr	x0, [x29,#56]
    4678:	97fff3ec 	bl	1628 <_cs_read>
    467c:	b90037a0 	str	w0, [x29,#52]
    4680:	f94013a0 	ldr	x0, [x29,#32]
    4684:	f100001f 	cmp	x0, #0x0
    4688:	54000080 	b.eq	4698 <cs_debug_get_pc_sample+0xc4>
    468c:	f94013a0 	ldr	x0, [x29,#32]
    4690:	b94037a1 	ldr	w1, [x29,#52]
    4694:	b9000001 	str	w1, [x0]
    4698:	f9401fa0 	ldr	x0, [x29,#56]
    469c:	b940e400 	ldr	w0, [x0,#228]
    46a0:	12000c00 	and	w0, w0, #0xf
    46a4:	7100041f 	cmp	w0, #0x1
    46a8:	54000309 	b.ls	4708 <cs_debug_get_pc_sample+0x134>
    46ac:	f9400fa0 	ldr	x0, [x29,#24]
    46b0:	f100001f 	cmp	x0, #0x0
    46b4:	540000e0 	b.eq	46d0 <cs_debug_get_pc_sample+0xfc>
    46b8:	52801481 	mov	w1, #0xa4                  	// #164
    46bc:	f9401fa0 	ldr	x0, [x29,#56]
    46c0:	97fff3da 	bl	1628 <_cs_read>
    46c4:	2a0003e1 	mov	w1, w0
    46c8:	f9400fa0 	ldr	x0, [x29,#24]
    46cc:	b9000001 	str	w1, [x0]
    46d0:	f9401fa0 	ldr	x0, [x29,#56]
    46d4:	b940e400 	ldr	w0, [x0,#228]
    46d8:	12000c00 	and	w0, w0, #0xf
    46dc:	7100081f 	cmp	w0, #0x2
    46e0:	54000149 	b.ls	4708 <cs_debug_get_pc_sample+0x134>
    46e4:	f9400ba0 	ldr	x0, [x29,#16]
    46e8:	f100001f 	cmp	x0, #0x0
    46ec:	540000e0 	b.eq	4708 <cs_debug_get_pc_sample+0x134>
    46f0:	52801501 	mov	w1, #0xa8                  	// #168
    46f4:	f9401fa0 	ldr	x0, [x29,#56]
    46f8:	97fff3cc 	bl	1628 <_cs_read>
    46fc:	2a0003e1 	mov	w1, w0
    4700:	f9400ba0 	ldr	x0, [x29,#16]
    4704:	b9000001 	str	w1, [x0]
    4708:	52800000 	mov	w0, #0x0                   	// #0
    470c:	14000002 	b	4714 <cs_debug_get_pc_sample+0x140>
    4710:	12800000 	mov	w0, #0xffffffff            	// #-1
    4714:	a8c47bfd 	ldp	x29, x30, [sp],#64
    4718:	d65f03c0 	ret

000000000000471c <do_registration_juno>:
    471c:	a9b77bfd 	stp	x29, x30, [sp,#-144]!
    4720:	910003fd 	mov	x29, sp
    4724:	f9000fa0 	str	x0, [x29,#24]
    4728:	90000180 	adrp	x0, 34000 <__hexdig+0x420>
    472c:	911dc000 	add	x0, x0, #0x770
    4730:	b9400000 	ldr	w0, [x0]
    4734:	7100001f 	cmp	w0, #0x0
    4738:	54000080 	b.eq	4748 <do_registration_juno+0x2c>
    473c:	d0000140 	adrp	x0, 2e000 <__func__.5451+0x38>
    4740:	9120c000 	add	x0, x0, #0x830
    4744:	94005277 	bl	19120 <puts>
    4748:	d2a40000 	mov	x0, #0x20000000            	// #536870912
    474c:	940030a2 	bl	109d4 <cs_register_romtable>
    4750:	90000180 	adrp	x0, 34000 <__hexdig+0x420>
    4754:	911dc000 	add	x0, x0, #0x770
    4758:	b9400000 	ldr	w0, [x0]
    475c:	7100001f 	cmp	w0, #0x0
    4760:	54000080 	b.eq	4770 <do_registration_juno+0x54>
    4764:	d0000140 	adrp	x0, 2e000 <__func__.5451+0x38>
    4768:	91218000 	add	x0, x0, #0x860
    476c:	9400526d 	bl	19120 <puts>
    4770:	d2a44040 	mov	x0, #0x22020000            	// #570556416
    4774:	940030d6 	bl	10acc <cs_device_register>
    4778:	52800081 	mov	w1, #0x4                   	// #4
    477c:	94003124 	bl	10c0c <cs_device_set_affinity>
    4780:	d2a44240 	mov	x0, #0x22120000            	// #571604992
    4784:	940030d2 	bl	10acc <cs_device_register>
    4788:	528000a1 	mov	w1, #0x5                   	// #5
    478c:	94003120 	bl	10c0c <cs_device_set_affinity>
    4790:	d2a46040 	mov	x0, #0x23020000            	// #587333632
    4794:	940030ce 	bl	10acc <cs_device_register>
    4798:	52800001 	mov	w1, #0x0                   	// #0
    479c:	9400311c 	bl	10c0c <cs_device_set_affinity>
    47a0:	d2a46240 	mov	x0, #0x23120000            	// #588382208
    47a4:	940030ca 	bl	10acc <cs_device_register>
    47a8:	52800021 	mov	w1, #0x1                   	// #1
    47ac:	94003118 	bl	10c0c <cs_device_set_affinity>
    47b0:	d2a46440 	mov	x0, #0x23220000            	// #589430784
    47b4:	940030c6 	bl	10acc <cs_device_register>
    47b8:	52800041 	mov	w1, #0x2                   	// #2
    47bc:	94003114 	bl	10c0c <cs_device_set_affinity>
    47c0:	d2a46640 	mov	x0, #0x23320000            	// #590479360
    47c4:	940030c2 	bl	10acc <cs_device_register>
    47c8:	52800061 	mov	w1, #0x3                   	// #3
    47cc:	94003110 	bl	10c0c <cs_device_set_affinity>
    47d0:	d2a44060 	mov	x0, #0x22030000            	// #570621952
    47d4:	940030be 	bl	10acc <cs_device_register>
    47d8:	52800081 	mov	w1, #0x4                   	// #4
    47dc:	9400310c 	bl	10c0c <cs_device_set_affinity>
    47e0:	d2a44260 	mov	x0, #0x22130000            	// #571670528
    47e4:	940030ba 	bl	10acc <cs_device_register>
    47e8:	528000a1 	mov	w1, #0x5                   	// #5
    47ec:	94003108 	bl	10c0c <cs_device_set_affinity>
    47f0:	d2a46060 	mov	x0, #0x23030000            	// #587399168
    47f4:	940030b6 	bl	10acc <cs_device_register>
    47f8:	52800001 	mov	w1, #0x0                   	// #0
    47fc:	94003104 	bl	10c0c <cs_device_set_affinity>
    4800:	d2a46260 	mov	x0, #0x23130000            	// #588447744
    4804:	940030b2 	bl	10acc <cs_device_register>
    4808:	52800021 	mov	w1, #0x1                   	// #1
    480c:	94003100 	bl	10c0c <cs_device_set_affinity>
    4810:	d2a46460 	mov	x0, #0x23230000            	// #589496320
    4814:	940030ae 	bl	10acc <cs_device_register>
    4818:	52800041 	mov	w1, #0x2                   	// #2
    481c:	940030fc 	bl	10c0c <cs_device_set_affinity>
    4820:	d2a46660 	mov	x0, #0x23330000            	// #590544896
    4824:	940030aa 	bl	10acc <cs_device_register>
    4828:	52800061 	mov	w1, #0x3                   	// #3
    482c:	940030f8 	bl	10c0c <cs_device_set_affinity>
    4830:	d2a44080 	mov	x0, #0x22040000            	// #570687488
    4834:	940030a6 	bl	10acc <cs_device_register>
    4838:	52800081 	mov	w1, #0x4                   	// #4
    483c:	940030f4 	bl	10c0c <cs_device_set_affinity>
    4840:	d2a44280 	mov	x0, #0x22140000            	// #571736064
    4844:	940030a2 	bl	10acc <cs_device_register>
    4848:	528000a1 	mov	w1, #0x5                   	// #5
    484c:	940030f0 	bl	10c0c <cs_device_set_affinity>
    4850:	d2a46080 	mov	x0, #0x23040000            	// #587464704
    4854:	9400309e 	bl	10acc <cs_device_register>
    4858:	52800001 	mov	w1, #0x0                   	// #0
    485c:	940030ec 	bl	10c0c <cs_device_set_affinity>
    4860:	d2a46280 	mov	x0, #0x23140000            	// #588513280
    4864:	9400309a 	bl	10acc <cs_device_register>
    4868:	52800021 	mov	w1, #0x1                   	// #1
    486c:	940030e8 	bl	10c0c <cs_device_set_affinity>
    4870:	d2a46480 	mov	x0, #0x23240000            	// #589561856
    4874:	94003096 	bl	10acc <cs_device_register>
    4878:	52800041 	mov	w1, #0x2                   	// #2
    487c:	940030e4 	bl	10c0c <cs_device_set_affinity>
    4880:	d2a46680 	mov	x0, #0x23340000            	// #590610432
    4884:	94003092 	bl	10acc <cs_device_register>
    4888:	52800061 	mov	w1, #0x3                   	// #3
    488c:	940030e0 	bl	10c0c <cs_device_set_affinity>
    4890:	90000180 	adrp	x0, 34000 <__hexdig+0x420>
    4894:	911dc000 	add	x0, x0, #0x770
    4898:	b9400000 	ldr	w0, [x0]
    489c:	7100001f 	cmp	w0, #0x0
    48a0:	54000080 	b.eq	48b0 <do_registration_juno+0x194>
    48a4:	d0000140 	adrp	x0, 2e000 <__func__.5451+0x38>
    48a8:	91222000 	add	x0, x0, #0x888
    48ac:	9400521d 	bl	19120 <puts>
    48b0:	d2a44180 	mov	x0, #0x220c0000            	// #571211776
    48b4:	94003283 	bl	112c0 <cs_device_get>
    48b8:	f90043a0 	str	x0, [x29,#128]
    48bc:	52800021 	mov	w1, #0x1                   	// #1
    48c0:	52800080 	mov	w0, #0x4                   	// #4
    48c4:	9400325b 	bl	11230 <cs_cpu_get_device>
    48c8:	52800003 	mov	w3, #0x0                   	// #0
    48cc:	f94043a2 	ldr	x2, [x29,#128]
    48d0:	52800001 	mov	w1, #0x0                   	// #0
    48d4:	94003125 	bl	10d68 <cs_atb_register>
    48d8:	52800021 	mov	w1, #0x1                   	// #1
    48dc:	528000a0 	mov	w0, #0x5                   	// #5
    48e0:	94003254 	bl	11230 <cs_cpu_get_device>
    48e4:	52800023 	mov	w3, #0x1                   	// #1
    48e8:	f94043a2 	ldr	x2, [x29,#128]
    48ec:	52800001 	mov	w1, #0x0                   	// #0
    48f0:	9400311e 	bl	10d68 <cs_atb_register>
    48f4:	d2a46180 	mov	x0, #0x230c0000            	// #587988992
    48f8:	94003272 	bl	112c0 <cs_device_get>
    48fc:	f9003fa0 	str	x0, [x29,#120]
    4900:	52800021 	mov	w1, #0x1                   	// #1
    4904:	52800000 	mov	w0, #0x0                   	// #0
    4908:	9400324a 	bl	11230 <cs_cpu_get_device>
    490c:	52800003 	mov	w3, #0x0                   	// #0
    4910:	f9403fa2 	ldr	x2, [x29,#120]
    4914:	52800001 	mov	w1, #0x0                   	// #0
    4918:	94003114 	bl	10d68 <cs_atb_register>
    491c:	52800021 	mov	w1, #0x1                   	// #1
    4920:	52800020 	mov	w0, #0x1                   	// #1
    4924:	94003243 	bl	11230 <cs_cpu_get_device>
    4928:	52800023 	mov	w3, #0x1                   	// #1
    492c:	f9403fa2 	ldr	x2, [x29,#120]
    4930:	52800001 	mov	w1, #0x0                   	// #0
    4934:	9400310d 	bl	10d68 <cs_atb_register>
    4938:	52800021 	mov	w1, #0x1                   	// #1
    493c:	52800040 	mov	w0, #0x2                   	// #2
    4940:	9400323c 	bl	11230 <cs_cpu_get_device>
    4944:	52800043 	mov	w3, #0x2                   	// #2
    4948:	f9403fa2 	ldr	x2, [x29,#120]
    494c:	52800001 	mov	w1, #0x0                   	// #0
    4950:	94003106 	bl	10d68 <cs_atb_register>
    4954:	52800021 	mov	w1, #0x1                   	// #1
    4958:	52800060 	mov	w0, #0x3                   	// #3
    495c:	94003235 	bl	11230 <cs_cpu_get_device>
    4960:	52800063 	mov	w3, #0x3                   	// #3
    4964:	f9403fa2 	ldr	x2, [x29,#120]
    4968:	52800001 	mov	w1, #0x0                   	// #0
    496c:	940030ff 	bl	10d68 <cs_atb_register>
    4970:	d2a40080 	mov	x0, #0x20040000            	// #537133056
    4974:	94003253 	bl	112c0 <cs_device_get>
    4978:	f9003ba0 	str	x0, [x29,#112]
    497c:	d2a40200 	mov	x0, #0x20100000            	// #537919488
    4980:	94003250 	bl	112c0 <cs_device_get>
    4984:	f90037a0 	str	x0, [x29,#104]
    4988:	d2a40020 	mov	x0, #0x20010000            	// #536936448
    498c:	9400324d 	bl	112c0 <cs_device_get>
    4990:	f90033a0 	str	x0, [x29,#96]
    4994:	d2a40240 	mov	x0, #0x20120000            	// #538050560
    4998:	9400324a 	bl	112c0 <cs_device_get>
    499c:	f9002fa0 	str	x0, [x29,#88]
    49a0:	d2a400e0 	mov	x0, #0x20070000            	// #537329664
    49a4:	94003247 	bl	112c0 <cs_device_get>
    49a8:	f9002ba0 	str	x0, [x29,#80]
    49ac:	d2a40060 	mov	x0, #0x20030000            	// #537067520
    49b0:	94003244 	bl	112c0 <cs_device_get>
    49b4:	f90027a0 	str	x0, [x29,#72]
    49b8:	d2a40260 	mov	x0, #0x20130000            	// #538116096
    49bc:	94003241 	bl	112c0 <cs_device_get>
    49c0:	f90023a0 	str	x0, [x29,#64]
    49c4:	f94023a0 	ldr	x0, [x29,#64]
    49c8:	f100001f 	cmp	x0, #0x0
    49cc:	54000361 	b.ne	4a38 <do_registration_juno+0x31c>
    49d0:	52800003 	mov	w3, #0x0                   	// #0
    49d4:	f9403ba2 	ldr	x2, [x29,#112]
    49d8:	52800001 	mov	w1, #0x0                   	// #0
    49dc:	f9403fa0 	ldr	x0, [x29,#120]
    49e0:	940030e2 	bl	10d68 <cs_atb_register>
    49e4:	52800023 	mov	w3, #0x1                   	// #1
    49e8:	f9403ba2 	ldr	x2, [x29,#112]
    49ec:	52800001 	mov	w1, #0x0                   	// #0
    49f0:	f94043a0 	ldr	x0, [x29,#128]
    49f4:	940030dd 	bl	10d68 <cs_atb_register>
    49f8:	52800043 	mov	w3, #0x2                   	// #2
    49fc:	f9403ba2 	ldr	x2, [x29,#112]
    4a00:	52800001 	mov	w1, #0x0                   	// #0
    4a04:	f94037a0 	ldr	x0, [x29,#104]
    4a08:	940030d8 	bl	10d68 <cs_atb_register>
    4a0c:	52800003 	mov	w3, #0x0                   	// #0
    4a10:	f94033a2 	ldr	x2, [x29,#96]
    4a14:	52800001 	mov	w1, #0x0                   	// #0
    4a18:	f9403ba0 	ldr	x0, [x29,#112]
    4a1c:	940030d3 	bl	10d68 <cs_atb_register>
    4a20:	52800003 	mov	w3, #0x0                   	// #0
    4a24:	f9402fa2 	ldr	x2, [x29,#88]
    4a28:	52800001 	mov	w1, #0x0                   	// #0
    4a2c:	f94033a0 	ldr	x0, [x29,#96]
    4a30:	940030ce 	bl	10d68 <cs_atb_register>
    4a34:	14000032 	b	4afc <do_registration_juno+0x3e0>
    4a38:	d2a402a0 	mov	x0, #0x20150000            	// #538247168
    4a3c:	94003221 	bl	112c0 <cs_device_get>
    4a40:	f9001fa0 	str	x0, [x29,#56]
    4a44:	d2a40280 	mov	x0, #0x20140000            	// #538181632
    4a48:	9400321e 	bl	112c0 <cs_device_get>
    4a4c:	f9001ba0 	str	x0, [x29,#48]
    4a50:	52800003 	mov	w3, #0x0                   	// #0
    4a54:	f9403ba2 	ldr	x2, [x29,#112]
    4a58:	52800001 	mov	w1, #0x0                   	// #0
    4a5c:	f9403fa0 	ldr	x0, [x29,#120]
    4a60:	940030c2 	bl	10d68 <cs_atb_register>
    4a64:	52800023 	mov	w3, #0x1                   	// #1
    4a68:	f9403ba2 	ldr	x2, [x29,#112]
    4a6c:	52800001 	mov	w1, #0x0                   	// #0
    4a70:	f94043a0 	ldr	x0, [x29,#128]
    4a74:	940030bd 	bl	10d68 <cs_atb_register>
    4a78:	52800003 	mov	w3, #0x0                   	// #0
    4a7c:	f94023a2 	ldr	x2, [x29,#64]
    4a80:	52800001 	mov	w1, #0x0                   	// #0
    4a84:	f94037a0 	ldr	x0, [x29,#104]
    4a88:	940030b8 	bl	10d68 <cs_atb_register>
    4a8c:	52800003 	mov	w3, #0x0                   	// #0
    4a90:	f94033a2 	ldr	x2, [x29,#96]
    4a94:	52800001 	mov	w1, #0x0                   	// #0
    4a98:	f9403ba0 	ldr	x0, [x29,#112]
    4a9c:	940030b3 	bl	10d68 <cs_atb_register>
    4aa0:	52800003 	mov	w3, #0x0                   	// #0
    4aa4:	f9401ba2 	ldr	x2, [x29,#48]
    4aa8:	52800001 	mov	w1, #0x0                   	// #0
    4aac:	f94023a0 	ldr	x0, [x29,#64]
    4ab0:	940030ae 	bl	10d68 <cs_atb_register>
    4ab4:	52800003 	mov	w3, #0x0                   	// #0
    4ab8:	f9401fa2 	ldr	x2, [x29,#56]
    4abc:	52800001 	mov	w1, #0x0                   	// #0
    4ac0:	f94033a0 	ldr	x0, [x29,#96]
    4ac4:	940030a9 	bl	10d68 <cs_atb_register>
    4ac8:	52800023 	mov	w3, #0x1                   	// #1
    4acc:	f9401fa2 	ldr	x2, [x29,#56]
    4ad0:	52800001 	mov	w1, #0x0                   	// #0
    4ad4:	f9401ba0 	ldr	x0, [x29,#48]
    4ad8:	940030a4 	bl	10d68 <cs_atb_register>
    4adc:	52800003 	mov	w3, #0x0                   	// #0
    4ae0:	f9402fa2 	ldr	x2, [x29,#88]
    4ae4:	52800001 	mov	w1, #0x0                   	// #0
    4ae8:	f9401fa0 	ldr	x0, [x29,#56]
    4aec:	9400309f 	bl	10d68 <cs_atb_register>
    4af0:	f9400fa0 	ldr	x0, [x29,#24]
    4af4:	f9401ba1 	ldr	x1, [x29,#48]
    4af8:	f900c801 	str	x1, [x0,#400]
    4afc:	52800003 	mov	w3, #0x0                   	// #0
    4b00:	f9402ba2 	ldr	x2, [x29,#80]
    4b04:	52800021 	mov	w1, #0x1                   	// #1
    4b08:	f9402fa0 	ldr	x0, [x29,#88]
    4b0c:	94003097 	bl	10d68 <cs_atb_register>
    4b10:	52800003 	mov	w3, #0x0                   	// #0
    4b14:	f94027a2 	ldr	x2, [x29,#72]
    4b18:	52800001 	mov	w1, #0x0                   	// #0
    4b1c:	f9402fa0 	ldr	x0, [x29,#88]
    4b20:	94003092 	bl	10d68 <cs_atb_register>
    4b24:	f9400fa0 	ldr	x0, [x29,#24]
    4b28:	f94037a1 	ldr	x1, [x29,#104]
    4b2c:	f900c001 	str	x1, [x0,#384]
    4b30:	f9400fa0 	ldr	x0, [x29,#24]
    4b34:	f94033a1 	ldr	x1, [x29,#96]
    4b38:	f900c401 	str	x1, [x0,#392]
    4b3c:	d2a50002 	mov	x2, #0x28000000            	// #671088640
    4b40:	52800001 	mov	w1, #0x0                   	// #0
    4b44:	f94037a0 	ldr	x0, [x29,#104]
    4b48:	9400269a 	bl	e5b0 <cs_stm_config_master>
    4b4c:	52800001 	mov	w1, #0x0                   	// #0
    4b50:	f94037a0 	ldr	x0, [x29,#104]
    4b54:	9400270b 	bl	e780 <cs_stm_select_master>
    4b58:	d2a40040 	mov	x0, #0x20020000            	// #537001984
    4b5c:	94002fdc 	bl	10acc <cs_device_register>
    4b60:	f90017a0 	str	x0, [x29,#40]
    4b64:	52800001 	mov	w1, #0x0                   	// #0
    4b68:	f94017a0 	ldr	x0, [x29,#40]
    4b6c:	97fffb5c 	bl	38dc <cs_cti_trigsrc>
    4b70:	aa0003e2 	mov	x2, x0
    4b74:	aa0103e3 	mov	x3, x1
    4b78:	52800021 	mov	w1, #0x1                   	// #1
    4b7c:	f94033a0 	ldr	x0, [x29,#96]
    4b80:	97fffb9b 	bl	39ec <cs_cti_connect_trigsrc>
    4b84:	52800021 	mov	w1, #0x1                   	// #1
    4b88:	f94017a0 	ldr	x0, [x29,#40]
    4b8c:	97fffb54 	bl	38dc <cs_cti_trigsrc>
    4b90:	aa0003e2 	mov	x2, x0
    4b94:	aa0103e3 	mov	x3, x1
    4b98:	52800001 	mov	w1, #0x0                   	// #0
    4b9c:	f94033a0 	ldr	x0, [x29,#96]
    4ba0:	97fffb93 	bl	39ec <cs_cti_connect_trigsrc>
    4ba4:	528000e1 	mov	w1, #0x7                   	// #7
    4ba8:	f94017a0 	ldr	x0, [x29,#40]
    4bac:	97fffb69 	bl	3950 <cs_cti_trigdst>
    4bb0:	52800023 	mov	w3, #0x1                   	// #1
    4bb4:	f94033a2 	ldr	x2, [x29,#96]
    4bb8:	97fffbcd 	bl	3aec <cs_cti_connect_trigdst>
    4bbc:	528000c1 	mov	w1, #0x6                   	// #6
    4bc0:	f94017a0 	ldr	x0, [x29,#40]
    4bc4:	97fffb63 	bl	3950 <cs_cti_trigdst>
    4bc8:	52800003 	mov	w3, #0x0                   	// #0
    4bcc:	f94033a2 	ldr	x2, [x29,#96]
    4bd0:	97fffbc7 	bl	3aec <cs_cti_connect_trigdst>
    4bd4:	52800041 	mov	w1, #0x2                   	// #2
    4bd8:	f94017a0 	ldr	x0, [x29,#40]
    4bdc:	97fffb40 	bl	38dc <cs_cti_trigsrc>
    4be0:	aa0003e2 	mov	x2, x0
    4be4:	aa0103e3 	mov	x3, x1
    4be8:	52800021 	mov	w1, #0x1                   	// #1
    4bec:	f9402ba0 	ldr	x0, [x29,#80]
    4bf0:	97fffb7f 	bl	39ec <cs_cti_connect_trigsrc>
    4bf4:	52800061 	mov	w1, #0x3                   	// #3
    4bf8:	f94017a0 	ldr	x0, [x29,#40]
    4bfc:	97fffb38 	bl	38dc <cs_cti_trigsrc>
    4c00:	aa0003e2 	mov	x2, x0
    4c04:	aa0103e3 	mov	x3, x1
    4c08:	52800001 	mov	w1, #0x0                   	// #0
    4c0c:	f9402ba0 	ldr	x0, [x29,#80]
    4c10:	97fffb77 	bl	39ec <cs_cti_connect_trigsrc>
    4c14:	52800001 	mov	w1, #0x0                   	// #0
    4c18:	f94017a0 	ldr	x0, [x29,#40]
    4c1c:	97fffb4d 	bl	3950 <cs_cti_trigdst>
    4c20:	52800023 	mov	w3, #0x1                   	// #1
    4c24:	f9402ba2 	ldr	x2, [x29,#80]
    4c28:	97fffbb1 	bl	3aec <cs_cti_connect_trigdst>
    4c2c:	52800021 	mov	w1, #0x1                   	// #1
    4c30:	f94017a0 	ldr	x0, [x29,#40]
    4c34:	97fffb47 	bl	3950 <cs_cti_trigdst>
    4c38:	52800003 	mov	w3, #0x0                   	// #0
    4c3c:	f9402ba2 	ldr	x2, [x29,#80]
    4c40:	97fffbab 	bl	3aec <cs_cti_connect_trigdst>
    4c44:	52800081 	mov	w1, #0x4                   	// #4
    4c48:	f94017a0 	ldr	x0, [x29,#40]
    4c4c:	97fffb24 	bl	38dc <cs_cti_trigsrc>
    4c50:	aa0003e2 	mov	x2, x0
    4c54:	aa0103e3 	mov	x3, x1
    4c58:	52800001 	mov	w1, #0x0                   	// #0
    4c5c:	f94037a0 	ldr	x0, [x29,#104]
    4c60:	97fffb63 	bl	39ec <cs_cti_connect_trigsrc>
    4c64:	528000a1 	mov	w1, #0x5                   	// #5
    4c68:	f94017a0 	ldr	x0, [x29,#40]
    4c6c:	97fffb1c 	bl	38dc <cs_cti_trigsrc>
    4c70:	aa0003e2 	mov	x2, x0
    4c74:	aa0103e3 	mov	x3, x1
    4c78:	52800021 	mov	w1, #0x1                   	// #1
    4c7c:	f94037a0 	ldr	x0, [x29,#104]
    4c80:	97fffb5b 	bl	39ec <cs_cti_connect_trigsrc>
    4c84:	528000c1 	mov	w1, #0x6                   	// #6
    4c88:	f94017a0 	ldr	x0, [x29,#40]
    4c8c:	97fffb14 	bl	38dc <cs_cti_trigsrc>
    4c90:	aa0003e2 	mov	x2, x0
    4c94:	aa0103e3 	mov	x3, x1
    4c98:	52800041 	mov	w1, #0x2                   	// #2
    4c9c:	f94037a0 	ldr	x0, [x29,#104]
    4ca0:	97fffb53 	bl	39ec <cs_cti_connect_trigsrc>
    4ca4:	528000e1 	mov	w1, #0x7                   	// #7
    4ca8:	f94017a0 	ldr	x0, [x29,#40]
    4cac:	97fffb0c 	bl	38dc <cs_cti_trigsrc>
    4cb0:	aa0003e2 	mov	x2, x0
    4cb4:	aa0103e3 	mov	x3, x1
    4cb8:	52800061 	mov	w1, #0x3                   	// #3
    4cbc:	f94037a0 	ldr	x0, [x29,#104]
    4cc0:	97fffb4b 	bl	39ec <cs_cti_connect_trigsrc>
    4cc4:	52800081 	mov	w1, #0x4                   	// #4
    4cc8:	f94017a0 	ldr	x0, [x29,#40]
    4ccc:	97fffb21 	bl	3950 <cs_cti_trigdst>
    4cd0:	52800003 	mov	w3, #0x0                   	// #0
    4cd4:	f94037a2 	ldr	x2, [x29,#104]
    4cd8:	97fffb85 	bl	3aec <cs_cti_connect_trigdst>
    4cdc:	52800081 	mov	w1, #0x4                   	// #4
    4ce0:	f94017a0 	ldr	x0, [x29,#40]
    4ce4:	97fffb1b 	bl	3950 <cs_cti_trigdst>
    4ce8:	52800023 	mov	w3, #0x1                   	// #1
    4cec:	f94037a2 	ldr	x2, [x29,#104]
    4cf0:	97fffb7f 	bl	3aec <cs_cti_connect_trigdst>
    4cf4:	528000a1 	mov	w1, #0x5                   	// #5
    4cf8:	f94017a0 	ldr	x0, [x29,#40]
    4cfc:	97fffb15 	bl	3950 <cs_cti_trigdst>
    4d00:	52800043 	mov	w3, #0x2                   	// #2
    4d04:	f94037a2 	ldr	x2, [x29,#104]
    4d08:	97fffb79 	bl	3aec <cs_cti_connect_trigdst>
    4d0c:	528000a1 	mov	w1, #0x5                   	// #5
    4d10:	f94017a0 	ldr	x0, [x29,#40]
    4d14:	97fffb0f 	bl	3950 <cs_cti_trigdst>
    4d18:	52800063 	mov	w3, #0x3                   	// #3
    4d1c:	f94037a2 	ldr	x2, [x29,#104]
    4d20:	97fffb73 	bl	3aec <cs_cti_connect_trigdst>
    4d24:	b9008fbf 	str	wzr, [x29,#140]
    4d28:	14000008 	b	4d48 <do_registration_juno+0x62c>
    4d2c:	f9400fa0 	ldr	x0, [x29,#24]
    4d30:	b9808fa1 	ldrsw	x1, [x29,#140]
    4d34:	5281a062 	mov	w2, #0xd03                 	// #3331
    4d38:	b8217802 	str	w2, [x0,x1,lsl #2]
    4d3c:	b9408fa0 	ldr	w0, [x29,#140]
    4d40:	11000400 	add	w0, w0, #0x1
    4d44:	b9008fa0 	str	w0, [x29,#140]
    4d48:	b9408fa0 	ldr	w0, [x29,#140]
    4d4c:	71000c1f 	cmp	w0, #0x3
    4d50:	54fffeed 	b.le	4d2c <do_registration_juno+0x610>
    4d54:	52800080 	mov	w0, #0x4                   	// #4
    4d58:	b9008fa0 	str	w0, [x29,#140]
    4d5c:	14000008 	b	4d7c <do_registration_juno+0x660>
    4d60:	f9400fa0 	ldr	x0, [x29,#24]
    4d64:	b9808fa1 	ldrsw	x1, [x29,#140]
    4d68:	5281a0e2 	mov	w2, #0xd07                 	// #3335
    4d6c:	b8217802 	str	w2, [x0,x1,lsl #2]
    4d70:	b9408fa0 	ldr	w0, [x29,#140]
    4d74:	11000400 	add	w0, w0, #0x1
    4d78:	b9008fa0 	str	w0, [x29,#140]
    4d7c:	b9408fa0 	ldr	w0, [x29,#140]
    4d80:	7100141f 	cmp	w0, #0x5
    4d84:	54fffeed 	b.le	4d60 <do_registration_juno+0x644>
    4d88:	52800000 	mov	w0, #0x0                   	// #0
    4d8c:	a8c97bfd 	ldp	x29, x30, [sp],#144
    4d90:	d65f03c0 	ret

0000000000004d94 <do_registration_zynqus>:
    4d94:	a9b87bfd 	stp	x29, x30, [sp,#-128]!
    4d98:	910003fd 	mov	x29, sp
    4d9c:	f9000fa0 	str	x0, [x29,#24]
    4da0:	90000180 	adrp	x0, 34000 <__hexdig+0x420>
    4da4:	911dc000 	add	x0, x0, #0x770
    4da8:	b9400000 	ldr	w0, [x0]
    4dac:	7100001f 	cmp	w0, #0x0
    4db0:	54000080 	b.eq	4dc0 <do_registration_zynqus+0x2c>
    4db4:	d0000140 	adrp	x0, 2e000 <__func__.5451+0x38>
    4db8:	9120c000 	add	x0, x0, #0x830
    4dbc:	940050d9 	bl	19120 <puts>
    4dc0:	d28fffe1 	mov	x1, #0x7fff                	// #32767
    4dc4:	f2bfd7e1 	movk	x1, #0xfebf, lsl #16
    4dc8:	d2bfd7e0 	mov	x0, #0xfebf0000            	// #4273930240
    4dcc:	94002f60 	bl	10b4c <cs_exclude_range>
    4dd0:	d2bfd000 	mov	x0, #0xfe800000            	// #4269801472
    4dd4:	94002f00 	bl	109d4 <cs_register_romtable>
    4dd8:	90000180 	adrp	x0, 34000 <__hexdig+0x420>
    4ddc:	911dc000 	add	x0, x0, #0x770
    4de0:	b9400000 	ldr	w0, [x0]
    4de4:	7100001f 	cmp	w0, #0x0
    4de8:	54000080 	b.eq	4df8 <do_registration_zynqus+0x64>
    4dec:	d0000140 	adrp	x0, 2e000 <__func__.5451+0x38>
    4df0:	91218000 	add	x0, x0, #0x860
    4df4:	940050cb 	bl	19120 <puts>
    4df8:	d2900000 	mov	x0, #0x8000                	// #32768
    4dfc:	f2bfd7e0 	movk	x0, #0xfebf, lsl #16
    4e00:	94002f33 	bl	10acc <cs_device_register>
    4e04:	52800081 	mov	w1, #0x4                   	// #4
    4e08:	94002f81 	bl	10c0c <cs_device_set_affinity>
    4e0c:	d2920000 	mov	x0, #0x9000                	// #36864
    4e10:	f2bfd7e0 	movk	x0, #0xfebf, lsl #16
    4e14:	94002f2e 	bl	10acc <cs_device_register>
    4e18:	528000a1 	mov	w1, #0x5                   	// #5
    4e1c:	94002f7c 	bl	10c0c <cs_device_set_affinity>
    4e20:	d2bfd840 	mov	x0, #0xfec20000            	// #4274126848
    4e24:	94002f2a 	bl	10acc <cs_device_register>
    4e28:	52800001 	mov	w1, #0x0                   	// #0
    4e2c:	94002f78 	bl	10c0c <cs_device_set_affinity>
    4e30:	d2bfda40 	mov	x0, #0xfed20000            	// #4275175424
    4e34:	94002f26 	bl	10acc <cs_device_register>
    4e38:	52800021 	mov	w1, #0x1                   	// #1
    4e3c:	94002f74 	bl	10c0c <cs_device_set_affinity>
    4e40:	d2bfdc40 	mov	x0, #0xfee20000            	// #4276224000
    4e44:	94002f22 	bl	10acc <cs_device_register>
    4e48:	52800041 	mov	w1, #0x2                   	// #2
    4e4c:	94002f70 	bl	10c0c <cs_device_set_affinity>
    4e50:	d2bfde40 	mov	x0, #0xfef20000            	// #4277272576
    4e54:	94002f1e 	bl	10acc <cs_device_register>
    4e58:	52800061 	mov	w1, #0x3                   	// #3
    4e5c:	94002f6c 	bl	10c0c <cs_device_set_affinity>
    4e60:	d2bfd860 	mov	x0, #0xfec30000            	// #4274192384
    4e64:	94002f1a 	bl	10acc <cs_device_register>
    4e68:	52800001 	mov	w1, #0x0                   	// #0
    4e6c:	94002f68 	bl	10c0c <cs_device_set_affinity>
    4e70:	d2bfda60 	mov	x0, #0xfed30000            	// #4275240960
    4e74:	94002f16 	bl	10acc <cs_device_register>
    4e78:	52800021 	mov	w1, #0x1                   	// #1
    4e7c:	94002f64 	bl	10c0c <cs_device_set_affinity>
    4e80:	d2bfdc60 	mov	x0, #0xfee30000            	// #4276289536
    4e84:	94002f12 	bl	10acc <cs_device_register>
    4e88:	52800041 	mov	w1, #0x2                   	// #2
    4e8c:	94002f60 	bl	10c0c <cs_device_set_affinity>
    4e90:	d2bfde60 	mov	x0, #0xfef30000            	// #4277338112
    4e94:	94002f0e 	bl	10acc <cs_device_register>
    4e98:	52800061 	mov	w1, #0x3                   	// #3
    4e9c:	94002f5c 	bl	10c0c <cs_device_set_affinity>
    4ea0:	d2980000 	mov	x0, #0xc000                	// #49152
    4ea4:	f2bfd7e0 	movk	x0, #0xfebf, lsl #16
    4ea8:	94002f09 	bl	10acc <cs_device_register>
    4eac:	52800081 	mov	w1, #0x4                   	// #4
    4eb0:	94002f57 	bl	10c0c <cs_device_set_affinity>
    4eb4:	d29a0000 	mov	x0, #0xd000                	// #53248
    4eb8:	f2bfd7e0 	movk	x0, #0xfebf, lsl #16
    4ebc:	94002f04 	bl	10acc <cs_device_register>
    4ec0:	528000a1 	mov	w1, #0x5                   	// #5
    4ec4:	94002f52 	bl	10c0c <cs_device_set_affinity>
    4ec8:	d2bfd880 	mov	x0, #0xfec40000            	// #4274257920
    4ecc:	94002f00 	bl	10acc <cs_device_register>
    4ed0:	52800001 	mov	w1, #0x0                   	// #0
    4ed4:	94002f4e 	bl	10c0c <cs_device_set_affinity>
    4ed8:	d2bfda80 	mov	x0, #0xfed40000            	// #4275306496
    4edc:	94002efc 	bl	10acc <cs_device_register>
    4ee0:	52800021 	mov	w1, #0x1                   	// #1
    4ee4:	94002f4a 	bl	10c0c <cs_device_set_affinity>
    4ee8:	d2bfdc80 	mov	x0, #0xfee40000            	// #4276355072
    4eec:	94002ef8 	bl	10acc <cs_device_register>
    4ef0:	52800041 	mov	w1, #0x2                   	// #2
    4ef4:	94002f46 	bl	10c0c <cs_device_set_affinity>
    4ef8:	d2bfde80 	mov	x0, #0xfef40000            	// #4277403648
    4efc:	94002ef4 	bl	10acc <cs_device_register>
    4f00:	52800061 	mov	w1, #0x3                   	// #3
    4f04:	94002f42 	bl	10c0c <cs_device_set_affinity>
    4f08:	90000180 	adrp	x0, 34000 <__hexdig+0x420>
    4f0c:	911dc000 	add	x0, x0, #0x770
    4f10:	b9400000 	ldr	w0, [x0]
    4f14:	7100001f 	cmp	w0, #0x0
    4f18:	54000080 	b.eq	4f28 <do_registration_zynqus+0x194>
    4f1c:	d0000140 	adrp	x0, 2e000 <__func__.5451+0x38>
    4f20:	91222000 	add	x0, x0, #0x888
    4f24:	9400507f 	bl	19120 <puts>
    4f28:	d2bfd220 	mov	x0, #0xfe910000            	// #4270915584
    4f2c:	940030e5 	bl	112c0 <cs_device_get>
    4f30:	f9003ba0 	str	x0, [x29,#112]
    4f34:	52800021 	mov	w1, #0x1                   	// #1
    4f38:	52800080 	mov	w0, #0x4                   	// #4
    4f3c:	940030bd 	bl	11230 <cs_cpu_get_device>
    4f40:	52800003 	mov	w3, #0x0                   	// #0
    4f44:	f9403ba2 	ldr	x2, [x29,#112]
    4f48:	52800001 	mov	w1, #0x0                   	// #0
    4f4c:	94002f87 	bl	10d68 <cs_atb_register>
    4f50:	52800021 	mov	w1, #0x1                   	// #1
    4f54:	528000a0 	mov	w0, #0x5                   	// #5
    4f58:	940030b6 	bl	11230 <cs_cpu_get_device>
    4f5c:	52800023 	mov	w3, #0x1                   	// #1
    4f60:	f9403ba2 	ldr	x2, [x29,#112]
    4f64:	52800001 	mov	w1, #0x0                   	// #0
    4f68:	94002f80 	bl	10d68 <cs_atb_register>
    4f6c:	d2bfd240 	mov	x0, #0xfe920000            	// #4270981120
    4f70:	940030d4 	bl	112c0 <cs_device_get>
    4f74:	f90037a0 	str	x0, [x29,#104]
    4f78:	52800021 	mov	w1, #0x1                   	// #1
    4f7c:	52800000 	mov	w0, #0x0                   	// #0
    4f80:	940030ac 	bl	11230 <cs_cpu_get_device>
    4f84:	52800003 	mov	w3, #0x0                   	// #0
    4f88:	f94037a2 	ldr	x2, [x29,#104]
    4f8c:	52800001 	mov	w1, #0x0                   	// #0
    4f90:	94002f76 	bl	10d68 <cs_atb_register>
    4f94:	52800021 	mov	w1, #0x1                   	// #1
    4f98:	52800020 	mov	w0, #0x1                   	// #1
    4f9c:	940030a5 	bl	11230 <cs_cpu_get_device>
    4fa0:	52800023 	mov	w3, #0x1                   	// #1
    4fa4:	f94037a2 	ldr	x2, [x29,#104]
    4fa8:	52800001 	mov	w1, #0x0                   	// #0
    4fac:	94002f6f 	bl	10d68 <cs_atb_register>
    4fb0:	52800021 	mov	w1, #0x1                   	// #1
    4fb4:	52800040 	mov	w0, #0x2                   	// #2
    4fb8:	9400309e 	bl	11230 <cs_cpu_get_device>
    4fbc:	52800043 	mov	w3, #0x2                   	// #2
    4fc0:	f94037a2 	ldr	x2, [x29,#104]
    4fc4:	52800001 	mov	w1, #0x0                   	// #0
    4fc8:	94002f68 	bl	10d68 <cs_atb_register>
    4fcc:	52800021 	mov	w1, #0x1                   	// #1
    4fd0:	52800060 	mov	w0, #0x3                   	// #3
    4fd4:	94003097 	bl	11230 <cs_cpu_get_device>
    4fd8:	52800063 	mov	w3, #0x3                   	// #3
    4fdc:	f94037a2 	ldr	x2, [x29,#104]
    4fe0:	52800001 	mov	w1, #0x0                   	// #0
    4fe4:	94002f61 	bl	10d68 <cs_atb_register>
    4fe8:	d2bfd260 	mov	x0, #0xfe930000            	// #4271046656
    4fec:	940030b5 	bl	112c0 <cs_device_get>
    4ff0:	f90033a0 	str	x0, [x29,#96]
    4ff4:	d2bfd280 	mov	x0, #0xfe940000            	// #4271112192
    4ff8:	940030b2 	bl	112c0 <cs_device_get>
    4ffc:	f9002fa0 	str	x0, [x29,#88]
    5000:	d2bfd2a0 	mov	x0, #0xfe950000            	// #4271177728
    5004:	940030af 	bl	112c0 <cs_device_get>
    5008:	f9002ba0 	str	x0, [x29,#80]
    500c:	d2bfd2c0 	mov	x0, #0xfe960000            	// #4271243264
    5010:	940030ac 	bl	112c0 <cs_device_get>
    5014:	f90027a0 	str	x0, [x29,#72]
    5018:	d2bfd2e0 	mov	x0, #0xfe970000            	// #4271308800
    501c:	940030a9 	bl	112c0 <cs_device_get>
    5020:	f90023a0 	str	x0, [x29,#64]
    5024:	d2bfd300 	mov	x0, #0xfe980000            	// #4271374336
    5028:	940030a6 	bl	112c0 <cs_device_get>
    502c:	f9001fa0 	str	x0, [x29,#56]
    5030:	d2bfd380 	mov	x0, #0xfe9c0000            	// #4271636480
    5034:	940030a3 	bl	112c0 <cs_device_get>
    5038:	f9001ba0 	str	x0, [x29,#48]
    503c:	52800003 	mov	w3, #0x0                   	// #0
    5040:	f9402fa2 	ldr	x2, [x29,#88]
    5044:	52800001 	mov	w1, #0x0                   	// #0
    5048:	f94037a0 	ldr	x0, [x29,#104]
    504c:	94002f47 	bl	10d68 <cs_atb_register>
    5050:	52800023 	mov	w3, #0x1                   	// #1
    5054:	f94033a2 	ldr	x2, [x29,#96]
    5058:	52800001 	mov	w1, #0x0                   	// #0
    505c:	f9403ba0 	ldr	x0, [x29,#112]
    5060:	94002f42 	bl	10d68 <cs_atb_register>
    5064:	52800043 	mov	w3, #0x2                   	// #2
    5068:	f94033a2 	ldr	x2, [x29,#96]
    506c:	52800001 	mov	w1, #0x0                   	// #0
    5070:	f9402fa0 	ldr	x0, [x29,#88]
    5074:	94002f3d 	bl	10d68 <cs_atb_register>
    5078:	52800003 	mov	w3, #0x0                   	// #0
    507c:	f9402ba2 	ldr	x2, [x29,#80]
    5080:	52800001 	mov	w1, #0x0                   	// #0
    5084:	f94033a0 	ldr	x0, [x29,#96]
    5088:	94002f38 	bl	10d68 <cs_atb_register>
    508c:	52800003 	mov	w3, #0x0                   	// #0
    5090:	f94027a2 	ldr	x2, [x29,#72]
    5094:	52800001 	mov	w1, #0x0                   	// #0
    5098:	f9402ba0 	ldr	x0, [x29,#80]
    509c:	94002f33 	bl	10d68 <cs_atb_register>
    50a0:	52800003 	mov	w3, #0x0                   	// #0
    50a4:	f94023a2 	ldr	x2, [x29,#64]
    50a8:	52800001 	mov	w1, #0x0                   	// #0
    50ac:	f94027a0 	ldr	x0, [x29,#72]
    50b0:	94002f2e 	bl	10d68 <cs_atb_register>
    50b4:	52800003 	mov	w3, #0x0                   	// #0
    50b8:	f9401fa2 	ldr	x2, [x29,#56]
    50bc:	52800021 	mov	w1, #0x1                   	// #1
    50c0:	f94027a0 	ldr	x0, [x29,#72]
    50c4:	94002f29 	bl	10d68 <cs_atb_register>
    50c8:	f9400fa0 	ldr	x0, [x29,#24]
    50cc:	f9401ba1 	ldr	x1, [x29,#48]
    50d0:	f900c001 	str	x1, [x0,#384]
    50d4:	f9400fa0 	ldr	x0, [x29,#24]
    50d8:	f9402fa1 	ldr	x1, [x29,#88]
    50dc:	f9010c01 	str	x1, [x0,#536]
    50e0:	f9400fa0 	ldr	x0, [x29,#24]
    50e4:	f9401fa1 	ldr	x1, [x29,#56]
    50e8:	f9011001 	str	x1, [x0,#544]
    50ec:	f9400fa0 	ldr	x0, [x29,#24]
    50f0:	f9402ba1 	ldr	x1, [x29,#80]
    50f4:	f900c401 	str	x1, [x0,#392]
    50f8:	d2bf0002 	mov	x2, #0xf8000000            	// #4160749568
    50fc:	52800001 	mov	w1, #0x0                   	// #0
    5100:	f9401ba0 	ldr	x0, [x29,#48]
    5104:	9400252b 	bl	e5b0 <cs_stm_config_master>
    5108:	52800001 	mov	w1, #0x0                   	// #0
    510c:	f9401ba0 	ldr	x0, [x29,#48]
    5110:	9400259c 	bl	e780 <cs_stm_select_master>
    5114:	d2bfd320 	mov	x0, #0xfe990000            	// #4271439872
    5118:	94002e6d 	bl	10acc <cs_device_register>
    511c:	f90017a0 	str	x0, [x29,#40]
    5120:	52800001 	mov	w1, #0x0                   	// #0
    5124:	f94017a0 	ldr	x0, [x29,#40]
    5128:	97fff9ed 	bl	38dc <cs_cti_trigsrc>
    512c:	aa0003e2 	mov	x2, x0
    5130:	aa0103e3 	mov	x3, x1
    5134:	52800021 	mov	w1, #0x1                   	// #1
    5138:	f9402ba0 	ldr	x0, [x29,#80]
    513c:	97fffa2c 	bl	39ec <cs_cti_connect_trigsrc>
    5140:	52800021 	mov	w1, #0x1                   	// #1
    5144:	f94017a0 	ldr	x0, [x29,#40]
    5148:	97fff9e5 	bl	38dc <cs_cti_trigsrc>
    514c:	aa0003e2 	mov	x2, x0
    5150:	aa0103e3 	mov	x3, x1
    5154:	52800001 	mov	w1, #0x0                   	// #0
    5158:	f9402ba0 	ldr	x0, [x29,#80]
    515c:	97fffa24 	bl	39ec <cs_cti_connect_trigsrc>
    5160:	528000e1 	mov	w1, #0x7                   	// #7
    5164:	f94017a0 	ldr	x0, [x29,#40]
    5168:	97fff9fa 	bl	3950 <cs_cti_trigdst>
    516c:	52800023 	mov	w3, #0x1                   	// #1
    5170:	f9402ba2 	ldr	x2, [x29,#80]
    5174:	97fffa5e 	bl	3aec <cs_cti_connect_trigdst>
    5178:	528000c1 	mov	w1, #0x6                   	// #6
    517c:	f94017a0 	ldr	x0, [x29,#40]
    5180:	97fff9f4 	bl	3950 <cs_cti_trigdst>
    5184:	52800003 	mov	w3, #0x0                   	// #0
    5188:	f9402ba2 	ldr	x2, [x29,#80]
    518c:	97fffa58 	bl	3aec <cs_cti_connect_trigdst>
    5190:	52800001 	mov	w1, #0x0                   	// #0
    5194:	f94017a0 	ldr	x0, [x29,#40]
    5198:	97fff9ee 	bl	3950 <cs_cti_trigdst>
    519c:	52800023 	mov	w3, #0x1                   	// #1
    51a0:	f9401fa2 	ldr	x2, [x29,#56]
    51a4:	97fffa52 	bl	3aec <cs_cti_connect_trigdst>
    51a8:	52800021 	mov	w1, #0x1                   	// #1
    51ac:	f94017a0 	ldr	x0, [x29,#40]
    51b0:	97fff9e8 	bl	3950 <cs_cti_trigdst>
    51b4:	52800003 	mov	w3, #0x0                   	// #0
    51b8:	f9401fa2 	ldr	x2, [x29,#56]
    51bc:	97fffa4c 	bl	3aec <cs_cti_connect_trigdst>
    51c0:	52800081 	mov	w1, #0x4                   	// #4
    51c4:	f94017a0 	ldr	x0, [x29,#40]
    51c8:	97fff9c5 	bl	38dc <cs_cti_trigsrc>
    51cc:	aa0003e2 	mov	x2, x0
    51d0:	aa0103e3 	mov	x3, x1
    51d4:	52800001 	mov	w1, #0x0                   	// #0
    51d8:	f9401ba0 	ldr	x0, [x29,#48]
    51dc:	97fffa04 	bl	39ec <cs_cti_connect_trigsrc>
    51e0:	528000a1 	mov	w1, #0x5                   	// #5
    51e4:	f94017a0 	ldr	x0, [x29,#40]
    51e8:	97fff9bd 	bl	38dc <cs_cti_trigsrc>
    51ec:	aa0003e2 	mov	x2, x0
    51f0:	aa0103e3 	mov	x3, x1
    51f4:	52800021 	mov	w1, #0x1                   	// #1
    51f8:	f9401ba0 	ldr	x0, [x29,#48]
    51fc:	97fff9fc 	bl	39ec <cs_cti_connect_trigsrc>
    5200:	528000c1 	mov	w1, #0x6                   	// #6
    5204:	f94017a0 	ldr	x0, [x29,#40]
    5208:	97fff9b5 	bl	38dc <cs_cti_trigsrc>
    520c:	aa0003e2 	mov	x2, x0
    5210:	aa0103e3 	mov	x3, x1
    5214:	52800041 	mov	w1, #0x2                   	// #2
    5218:	f9401ba0 	ldr	x0, [x29,#48]
    521c:	97fff9f4 	bl	39ec <cs_cti_connect_trigsrc>
    5220:	528000e1 	mov	w1, #0x7                   	// #7
    5224:	f94017a0 	ldr	x0, [x29,#40]
    5228:	97fff9ad 	bl	38dc <cs_cti_trigsrc>
    522c:	aa0003e2 	mov	x2, x0
    5230:	aa0103e3 	mov	x3, x1
    5234:	52800061 	mov	w1, #0x3                   	// #3
    5238:	f9401ba0 	ldr	x0, [x29,#48]
    523c:	97fff9ec 	bl	39ec <cs_cti_connect_trigsrc>
    5240:	52800081 	mov	w1, #0x4                   	// #4
    5244:	f94017a0 	ldr	x0, [x29,#40]
    5248:	97fff9c2 	bl	3950 <cs_cti_trigdst>
    524c:	52800003 	mov	w3, #0x0                   	// #0
    5250:	f9401ba2 	ldr	x2, [x29,#48]
    5254:	97fffa26 	bl	3aec <cs_cti_connect_trigdst>
    5258:	52800081 	mov	w1, #0x4                   	// #4
    525c:	f94017a0 	ldr	x0, [x29,#40]
    5260:	97fff9bc 	bl	3950 <cs_cti_trigdst>
    5264:	52800023 	mov	w3, #0x1                   	// #1
    5268:	f9401ba2 	ldr	x2, [x29,#48]
    526c:	97fffa20 	bl	3aec <cs_cti_connect_trigdst>
    5270:	528000a1 	mov	w1, #0x5                   	// #5
    5274:	f94017a0 	ldr	x0, [x29,#40]
    5278:	97fff9b6 	bl	3950 <cs_cti_trigdst>
    527c:	52800043 	mov	w3, #0x2                   	// #2
    5280:	f9401ba2 	ldr	x2, [x29,#48]
    5284:	97fffa1a 	bl	3aec <cs_cti_connect_trigdst>
    5288:	528000a1 	mov	w1, #0x5                   	// #5
    528c:	f94017a0 	ldr	x0, [x29,#40]
    5290:	97fff9b0 	bl	3950 <cs_cti_trigdst>
    5294:	52800063 	mov	w3, #0x3                   	// #3
    5298:	f9401ba2 	ldr	x2, [x29,#48]
    529c:	97fffa14 	bl	3aec <cs_cti_connect_trigdst>
    52a0:	b9007fbf 	str	wzr, [x29,#124]
    52a4:	14000008 	b	52c4 <do_registration_zynqus+0x530>
    52a8:	f9400fa0 	ldr	x0, [x29,#24]
    52ac:	b9807fa1 	ldrsw	x1, [x29,#124]
    52b0:	5281a062 	mov	w2, #0xd03                 	// #3331
    52b4:	b8217802 	str	w2, [x0,x1,lsl #2]
    52b8:	b9407fa0 	ldr	w0, [x29,#124]
    52bc:	11000400 	add	w0, w0, #0x1
    52c0:	b9007fa0 	str	w0, [x29,#124]
    52c4:	b9407fa0 	ldr	w0, [x29,#124]
    52c8:	71000c1f 	cmp	w0, #0x3
    52cc:	54fffeed 	b.le	52a8 <do_registration_zynqus+0x514>
    52d0:	52800080 	mov	w0, #0x4                   	// #4
    52d4:	b9007fa0 	str	w0, [x29,#124]
    52d8:	14000008 	b	52f8 <do_registration_zynqus+0x564>
    52dc:	f9400fa0 	ldr	x0, [x29,#24]
    52e0:	b9807fa1 	ldrsw	x1, [x29,#124]
    52e4:	528182a2 	mov	w2, #0xc15                 	// #3093
    52e8:	b8217802 	str	w2, [x0,x1,lsl #2]
    52ec:	b9407fa0 	ldr	w0, [x29,#124]
    52f0:	11000400 	add	w0, w0, #0x1
    52f4:	b9007fa0 	str	w0, [x29,#124]
    52f8:	b9407fa0 	ldr	w0, [x29,#124]
    52fc:	7100141f 	cmp	w0, #0x5
    5300:	54fffeed 	b.le	52dc <do_registration_zynqus+0x548>
    5304:	52800000 	mov	w0, #0x0                   	// #0
    5308:	a8c87bfd 	ldp	x29, x30, [sp],#128
    530c:	d65f03c0 	ret

0000000000005310 <setup_known_board>:
    5310:	a9bd7bfd 	stp	x29, x30, [sp,#-48]!
    5314:	910003fd 	mov	x29, sp
    5318:	f9000fa0 	str	x0, [x29,#24]
    531c:	f9000ba1 	str	x1, [x29,#16]
    5320:	b0000140 	adrp	x0, 2e000 <__func__.5451+0x38>
    5324:	9124a000 	add	x0, x0, #0x928
    5328:	94004a3c 	bl	17c18 <getenv>
    532c:	f90017a0 	str	x0, [x29,#40]
    5330:	f94017a0 	ldr	x0, [x29,#40]
    5334:	f100001f 	cmp	x0, #0x0
    5338:	540000c0 	b.eq	5350 <setup_known_board+0x40>
    533c:	f9400ba2 	ldr	x2, [x29,#16]
    5340:	f9400fa1 	ldr	x1, [x29,#24]
    5344:	f94017a0 	ldr	x0, [x29,#40]
    5348:	9400000a 	bl	5370 <setup_known_board_by_name>
    534c:	14000007 	b	5368 <setup_known_board+0x58>
    5350:	b0000140 	adrp	x0, 2e000 <__func__.5451+0x38>
    5354:	91238000 	add	x0, x0, #0x8e0
    5358:	aa0003e2 	mov	x2, x0
    535c:	f9400ba1 	ldr	x1, [x29,#16]
    5360:	f9400fa0 	ldr	x0, [x29,#24]
    5364:	94004084 	bl	15574 <setup_board>
    5368:	a8c37bfd 	ldp	x29, x30, [sp],#48
    536c:	d65f03c0 	ret

0000000000005370 <setup_known_board_by_name>:
    5370:	a9bd7bfd 	stp	x29, x30, [sp,#-48]!
    5374:	910003fd 	mov	x29, sp
    5378:	f90017a0 	str	x0, [x29,#40]
    537c:	f90013a1 	str	x1, [x29,#32]
    5380:	f9000fa2 	str	x2, [x29,#24]
    5384:	b0000140 	adrp	x0, 2e000 <__func__.5451+0x38>
    5388:	91238000 	add	x0, x0, #0x8e0
    538c:	aa0003e3 	mov	x3, x0
    5390:	f9400fa2 	ldr	x2, [x29,#24]
    5394:	f94013a1 	ldr	x1, [x29,#32]
    5398:	f94017a0 	ldr	x0, [x29,#40]
    539c:	940040a6 	bl	15634 <setup_named_board>
    53a0:	a8c37bfd 	ldp	x29, x30, [sp],#48
    53a4:	d65f03c0 	ret

00000000000053a8 <_cs_etm_static_config_init>:
    53a8:	a9be7bfd 	stp	x29, x30, [sp,#-32]!
    53ac:	910003fd 	mov	x29, sp
    53b0:	f9000fa0 	str	x0, [x29,#24]
    53b4:	f9400fa0 	ldr	x0, [x29,#24]
    53b8:	9103a000 	add	x0, x0, #0xe8
    53bc:	d2800402 	mov	x2, #0x20                  	// #32
    53c0:	52800001 	mov	w1, #0x0                   	// #0
    53c4:	94004ddf 	bl	18b40 <memset>
    53c8:	f9400fa0 	ldr	x0, [x29,#24]
    53cc:	b940e000 	ldr	w0, [x0,#224]
    53d0:	7100001f 	cmp	w0, #0x0
    53d4:	54000161 	b.ne	5400 <_cs_etm_static_config_init+0x58>
    53d8:	b0000140 	adrp	x0, 2e000 <__func__.5451+0x38>
    53dc:	9124e002 	add	x2, x0, #0x938
    53e0:	d0000140 	adrp	x0, 2f000 <known_boards+0x720>
    53e4:	910ce001 	add	x1, x0, #0x338
    53e8:	b0000140 	adrp	x0, 2e000 <__func__.5451+0x38>
    53ec:	91254000 	add	x0, x0, #0x950
    53f0:	aa0203e3 	mov	x3, x2
    53f4:	aa0103e2 	mov	x2, x1
    53f8:	52800381 	mov	w1, #0x1c                  	// #28
    53fc:	9400421f 	bl	15c78 <__assert_func>
    5400:	f9400fa0 	ldr	x0, [x29,#24]
    5404:	9400002e 	bl	54bc <_cs_etm_version>
    5408:	2a0003e1 	mov	w1, w0
    540c:	f9400fa0 	ldr	x0, [x29,#24]
    5410:	b900f801 	str	w1, [x0,#248]
    5414:	f9400fa0 	ldr	x0, [x29,#24]
    5418:	94000029 	bl	54bc <_cs_etm_version>
    541c:	121c0c00 	and	w0, w0, #0xf0
    5420:	7100fc1f 	cmp	w0, #0x3f
    5424:	54000089 	b.ls	5434 <_cs_etm_static_config_init+0x8c>
    5428:	f9400fa0 	ldr	x0, [x29,#24]
    542c:	94000bb9 	bl	8310 <_cs_etm_v4_static_config_init>
    5430:	14000021 	b	54b4 <_cs_etm_static_config_init+0x10c>
    5434:	52800081 	mov	w1, #0x4                   	// #4
    5438:	f9400fa0 	ldr	x0, [x29,#24]
    543c:	97fff07b 	bl	1628 <_cs_read>
    5440:	2a0003e1 	mov	w1, w0
    5444:	f9400fa0 	ldr	x0, [x29,#24]
    5448:	b900e801 	str	w1, [x0,#232]
    544c:	52800281 	mov	w1, #0x14                  	// #20
    5450:	f9400fa0 	ldr	x0, [x29,#24]
    5454:	97fff075 	bl	1628 <_cs_read>
    5458:	2a0003e1 	mov	w1, w0
    545c:	f9400fa0 	ldr	x0, [x29,#24]
    5460:	b900ec01 	str	w1, [x0,#236]
    5464:	f9400fa0 	ldr	x0, [x29,#24]
    5468:	3943b400 	ldrb	w0, [x0,#237]
    546c:	d3410400 	ubfx	x0, x0, #1, #1
    5470:	12001c00 	and	w0, w0, #0xff
    5474:	531d7000 	lsl	w0, w0, #3
    5478:	f9400fa1 	ldr	x1, [x29,#24]
    547c:	3943b021 	ldrb	w1, [x1,#236]
    5480:	d3400821 	ubfx	x1, x1, #0, #3
    5484:	12001c21 	and	w1, w1, #0xff
    5488:	2a010000 	orr	w0, w0, w1
    548c:	2a0003e1 	mov	w1, w0
    5490:	f9400fa0 	ldr	x0, [x29,#24]
    5494:	b900f001 	str	w1, [x0,#240]
    5498:	52803d01 	mov	w1, #0x1e8                 	// #488
    549c:	f9400fa0 	ldr	x0, [x29,#24]
    54a0:	97fff062 	bl	1628 <_cs_read>
    54a4:	2a0003e1 	mov	w1, w0
    54a8:	f9400fa0 	ldr	x0, [x29,#24]
    54ac:	b900f401 	str	w1, [x0,#244]
    54b0:	52800000 	mov	w0, #0x0                   	// #0
    54b4:	a8c27bfd 	ldp	x29, x30, [sp],#32
    54b8:	d65f03c0 	ret

00000000000054bc <_cs_etm_version>:
    54bc:	a9be7bfd 	stp	x29, x30, [sp,#-32]!
    54c0:	910003fd 	mov	x29, sp
    54c4:	f9000fa0 	str	x0, [x29,#24]
    54c8:	f9400fa0 	ldr	x0, [x29,#24]
    54cc:	b9402400 	ldr	w0, [x0,#36]
    54d0:	7100041f 	cmp	w0, #0x1
    54d4:	54000160 	b.eq	5500 <_cs_etm_version+0x44>
    54d8:	b0000140 	adrp	x0, 2e000 <__func__.5451+0x38>
    54dc:	9125a002 	add	x2, x0, #0x968
    54e0:	d0000140 	adrp	x0, 2f000 <known_boards+0x720>
    54e4:	910d6001 	add	x1, x0, #0x358
    54e8:	b0000140 	adrp	x0, 2e000 <__func__.5451+0x38>
    54ec:	91254000 	add	x0, x0, #0x950
    54f0:	aa0203e3 	mov	x3, x2
    54f4:	aa0103e2 	mov	x2, x1
    54f8:	52800741 	mov	w1, #0x3a                  	// #58
    54fc:	940041df 	bl	15c78 <__assert_func>
    5500:	f9400fa0 	ldr	x0, [x29,#24]
    5504:	b940e000 	ldr	w0, [x0,#224]
    5508:	53047c00 	lsr	w0, w0, #4
    550c:	12001c00 	and	w0, w0, #0xff
    5510:	a8c27bfd 	ldp	x29, x30, [sp],#32
    5514:	d65f03c0 	ret

0000000000005518 <_cs_etm_enable_programming>:
    5518:	a9bd7bfd 	stp	x29, x30, [sp,#-48]!
    551c:	910003fd 	mov	x29, sp
    5520:	f9000fa0 	str	x0, [x29,#24]
    5524:	f9400fa0 	ldr	x0, [x29,#24]
    5528:	97ffffe5 	bl	54bc <_cs_etm_version>
    552c:	121c0c00 	and	w0, w0, #0xf0
    5530:	7100fc1f 	cmp	w0, #0x3f
    5534:	54000089 	b.ls	5544 <_cs_etm_enable_programming+0x2c>
    5538:	f9400fa0 	ldr	x0, [x29,#24]
    553c:	94001425 	bl	a5d0 <_cs_etm_v4_enable_programming>
    5540:	14000046 	b	5658 <_cs_etm_enable_programming+0x140>
    5544:	f9400fa0 	ldr	x0, [x29,#24]
    5548:	97fff3f4 	bl	2518 <_cs_unlock>
    554c:	52806081 	mov	w1, #0x304                 	// #772
    5550:	f9400fa0 	ldr	x0, [x29,#24]
    5554:	97fff035 	bl	1628 <_cs_read>
    5558:	b9002fa0 	str	w0, [x29,#44]
    555c:	52800022 	mov	w2, #0x1                   	// #1
    5560:	52800001 	mov	w1, #0x0                   	// #0
    5564:	f9400fa0 	ldr	x0, [x29,#24]
    5568:	97fff251 	bl	1eac <_cs_isset>
    556c:	7100001f 	cmp	w0, #0x0
    5570:	54000120 	b.eq	5594 <_cs_etm_enable_programming+0x7c>
    5574:	52800022 	mov	w2, #0x1                   	// #1
    5578:	52800001 	mov	w1, #0x0                   	// #0
    557c:	f9400fa0 	ldr	x0, [x29,#24]
    5580:	97fff23f 	bl	1e7c <_cs_clear>
    5584:	52800022 	mov	w2, #0x1                   	// #1
    5588:	52800001 	mov	w1, #0x0                   	// #0
    558c:	f9400fa0 	ldr	x0, [x29,#24]
    5590:	97fff28e 	bl	1fc8 <_cs_waitnot>
    5594:	52806281 	mov	w1, #0x314                 	// #788
    5598:	f9400fa0 	ldr	x0, [x29,#24]
    559c:	97fff023 	bl	1628 <_cs_read>
    55a0:	b9002ba0 	str	w0, [x29,#40]
    55a4:	b9402ba0 	ldr	w0, [x29,#40]
    55a8:	121f0000 	and	w0, w0, #0x2
    55ac:	7100001f 	cmp	w0, #0x0
    55b0:	540000c0 	b.eq	55c8 <_cs_etm_enable_programming+0xb0>
    55b4:	f9400fa0 	ldr	x0, [x29,#24]
    55b8:	f9400801 	ldr	x1, [x0,#16]
    55bc:	b0000140 	adrp	x0, 2e000 <__func__.5451+0x38>
    55c0:	91260000 	add	x0, x0, #0x980
    55c4:	97ffee5d 	bl	f38 <_diagf>
    55c8:	b9402fa0 	ldr	w0, [x29,#44]
    55cc:	121f0000 	and	w0, w0, #0x2
    55d0:	7100001f 	cmp	w0, #0x0
    55d4:	540002c0 	b.eq	562c <_cs_etm_enable_programming+0x114>
    55d8:	b0000140 	adrp	x0, 2e000 <__func__.5451+0x38>
    55dc:	91276000 	add	x0, x0, #0x9d8
    55e0:	97ffee56 	bl	f38 <_diagf>
    55e4:	52800002 	mov	w2, #0x0                   	// #0
    55e8:	52806001 	mov	w1, #0x300                 	// #768
    55ec:	f9400fa0 	ldr	x0, [x29,#24]
    55f0:	97fff076 	bl	17c8 <_cs_write_wo>
    55f4:	52800042 	mov	w2, #0x2                   	// #2
    55f8:	52806081 	mov	w1, #0x304                 	// #772
    55fc:	f9400fa0 	ldr	x0, [x29,#24]
    5600:	97fff272 	bl	1fc8 <_cs_waitnot>
    5604:	b90027a0 	str	w0, [x29,#36]
    5608:	b94027a0 	ldr	w0, [x29,#36]
    560c:	7100001f 	cmp	w0, #0x0
    5610:	540000e0 	b.eq	562c <_cs_etm_enable_programming+0x114>
    5614:	b0000140 	adrp	x0, 2e000 <__func__.5451+0x38>
    5618:	91292000 	add	x0, x0, #0xa48
    561c:	aa0003e1 	mov	x1, x0
    5620:	f9400fa0 	ldr	x0, [x29,#24]
    5624:	97ffef3d 	bl	1318 <cs_report_device_error>
    5628:	1400000c 	b	5658 <_cs_etm_enable_programming+0x140>
    562c:	52800041 	mov	w1, #0x2                   	// #2
    5630:	f9400fa0 	ldr	x0, [x29,#24]
    5634:	97fff38f 	bl	2470 <_cs_claim>
    5638:	52808002 	mov	w2, #0x400                 	// #1024
    563c:	52800001 	mov	w1, #0x0                   	// #0
    5640:	f9400fa0 	ldr	x0, [x29,#24]
    5644:	97fff1f1 	bl	1e08 <_cs_set>
    5648:	52800042 	mov	w2, #0x2                   	// #2
    564c:	52800201 	mov	w1, #0x10                  	// #16
    5650:	f9400fa0 	ldr	x0, [x29,#24]
    5654:	97fff227 	bl	1ef0 <_cs_wait>
    5658:	a8c37bfd 	ldp	x29, x30, [sp],#48
    565c:	d65f03c0 	ret

0000000000005660 <_cs_etm_disable_programming>:
    5660:	a9be7bfd 	stp	x29, x30, [sp,#-32]!
    5664:	910003fd 	mov	x29, sp
    5668:	f9000fa0 	str	x0, [x29,#24]
    566c:	f9400fa0 	ldr	x0, [x29,#24]
    5670:	97ffff93 	bl	54bc <_cs_etm_version>
    5674:	121c0c00 	and	w0, w0, #0xf0
    5678:	7100fc1f 	cmp	w0, #0x3f
    567c:	54000089 	b.ls	568c <_cs_etm_disable_programming+0x2c>
    5680:	f9400fa0 	ldr	x0, [x29,#24]
    5684:	9400141d 	bl	a6f8 <_cs_etm_v4_disable_programming>
    5688:	14000009 	b	56ac <_cs_etm_disable_programming+0x4c>
    568c:	52808002 	mov	w2, #0x400                 	// #1024
    5690:	52800001 	mov	w1, #0x0                   	// #0
    5694:	f9400fa0 	ldr	x0, [x29,#24]
    5698:	97fff1f9 	bl	1e7c <_cs_clear>
    569c:	52800042 	mov	w2, #0x2                   	// #2
    56a0:	52800201 	mov	w1, #0x10                  	// #16
    56a4:	f9400fa0 	ldr	x0, [x29,#24]
    56a8:	97fff248 	bl	1fc8 <_cs_waitnot>
    56ac:	a8c27bfd 	ldp	x29, x30, [sp],#32
    56b0:	d65f03c0 	ret

00000000000056b4 <edesc>:
    56b4:	a9bc7bfd 	stp	x29, x30, [sp,#-64]!
    56b8:	910003fd 	mov	x29, sp
    56bc:	f9000fa0 	str	x0, [x29,#24]
    56c0:	b90017a1 	str	w1, [x29,#20]
    56c4:	b94017a0 	ldr	w0, [x29,#20]
    56c8:	530e7c00 	lsr	w0, w0, #14
    56cc:	12000800 	and	w0, w0, #0x7
    56d0:	b90033a0 	str	w0, [x29,#48]
    56d4:	b94033a0 	ldr	w0, [x29,#48]
    56d8:	7100041f 	cmp	w0, #0x1
    56dc:	54000068 	b.hi	56e8 <edesc+0x34>
    56e0:	52800020 	mov	w0, #0x1                   	// #1
    56e4:	14000002 	b	56ec <edesc+0x38>
    56e8:	52800040 	mov	w0, #0x2                   	// #2
    56ec:	b9002fa0 	str	w0, [x29,#44]
    56f0:	f9400fa0 	ldr	x0, [x29,#24]
    56f4:	3900001f 	strb	wzr, [x0]
    56f8:	f9400fa0 	ldr	x0, [x29,#24]
    56fc:	f9001fa0 	str	x0, [x29,#56]
    5700:	b94017a1 	ldr	w1, [x29,#20]
    5704:	52880de0 	mov	w0, #0x406f                	// #16495
    5708:	6b00003f 	cmp	w1, w0
    570c:	54000201 	b.ne	574c <edesc+0x98>
    5710:	f9401fa2 	ldr	x2, [x29,#56]
    5714:	b0000140 	adrp	x0, 2e000 <__func__.5451+0x38>
    5718:	9129c001 	add	x1, x0, #0xa70
    571c:	aa0203e0 	mov	x0, x2
    5720:	b9400022 	ldr	w2, [x1]
    5724:	b9000002 	str	w2, [x0]
    5728:	b8402021 	ldur	w1, [x1,#2]
    572c:	b8002001 	stur	w1, [x0,#2]
    5730:	528000a0 	mov	w0, #0x5                   	// #5
    5734:	93407c00 	sxtw	x0, w0
    5738:	f9401fa1 	ldr	x1, [x29,#56]
    573c:	8b000020 	add	x0, x1, x0
    5740:	f9001fa0 	str	x0, [x29,#56]
    5744:	f9400fa0 	ldr	x0, [x29,#24]
    5748:	14000152 	b	5c90 <edesc+0x5dc>
    574c:	d0000140 	adrp	x0, 2f000 <known_boards+0x720>
    5750:	910f0002 	add	x2, x0, #0x3c0
    5754:	b94033a1 	ldr	w1, [x29,#48]
    5758:	aa0103e0 	mov	x0, x1
    575c:	d37ff800 	lsl	x0, x0, #1
    5760:	8b010000 	add	x0, x0, x1
    5764:	d37df000 	lsl	x0, x0, #3
    5768:	8b000040 	add	x0, x2, x0
    576c:	f9400001 	ldr	x1, [x0]
    5770:	b0000140 	adrp	x0, 2e000 <__func__.5451+0x38>
    5774:	9129e000 	add	x0, x0, #0xa78
    5778:	aa0103e2 	mov	x2, x1
    577c:	aa0003e1 	mov	x1, x0
    5780:	f9401fa0 	ldr	x0, [x29,#56]
    5784:	9400519f 	bl	19e00 <sprintf>
    5788:	93407c00 	sxtw	x0, w0
    578c:	f9401fa1 	ldr	x1, [x29,#56]
    5790:	8b000020 	add	x0, x1, x0
    5794:	f9001fa0 	str	x0, [x29,#56]
    5798:	b90037bf 	str	wzr, [x29,#52]
    579c:	14000138 	b	5c7c <edesc+0x5c8>
    57a0:	b94017a0 	ldr	w0, [x29,#20]
    57a4:	12001800 	and	w0, w0, #0x7f
    57a8:	b9002ba0 	str	w0, [x29,#40]
    57ac:	b9402ba0 	ldr	w0, [x29,#40]
    57b0:	12000c00 	and	w0, w0, #0xf
    57b4:	b90027a0 	str	w0, [x29,#36]
    57b8:	b9402ba0 	ldr	w0, [x29,#40]
    57bc:	53047c00 	lsr	w0, w0, #4
    57c0:	12000800 	and	w0, w0, #0x7
    57c4:	b90023a0 	str	w0, [x29,#32]
    57c8:	b94023a0 	ldr	w0, [x29,#32]
    57cc:	71000c1f 	cmp	w0, #0x3
    57d0:	54000820 	b.eq	58d4 <edesc+0x220>
    57d4:	71000c1f 	cmp	w0, #0x3
    57d8:	540000c8 	b.hi	57f0 <edesc+0x13c>
    57dc:	7100041f 	cmp	w0, #0x1
    57e0:	54000300 	b.eq	5840 <edesc+0x18c>
    57e4:	7100041f 	cmp	w0, #0x1
    57e8:	54000608 	b.hi	58a8 <edesc+0x1f4>
    57ec:	1400000a 	b	5814 <edesc+0x160>
    57f0:	7100141f 	cmp	w0, #0x5
    57f4:	540009c0 	b.eq	592c <edesc+0x278>
    57f8:	7100141f 	cmp	w0, #0x5
    57fc:	54000823 	b.cc	5900 <edesc+0x24c>
    5800:	7100181f 	cmp	w0, #0x6
    5804:	54001340 	b.eq	5a6c <edesc+0x3b8>
    5808:	71001c1f 	cmp	w0, #0x7
    580c:	54001ec0 	b.eq	5be4 <edesc+0x530>
    5810:	14000100 	b	5c10 <edesc+0x55c>
    5814:	b0000140 	adrp	x0, 2e000 <__func__.5451+0x38>
    5818:	912a0000 	add	x0, x0, #0xa80
    581c:	b94027a2 	ldr	w2, [x29,#36]
    5820:	aa0003e1 	mov	x1, x0
    5824:	f9401fa0 	ldr	x0, [x29,#56]
    5828:	94005176 	bl	19e00 <sprintf>
    582c:	93407c00 	sxtw	x0, w0
    5830:	f9401fa1 	ldr	x1, [x29,#56]
    5834:	8b000020 	add	x0, x1, x0
    5838:	f9001fa0 	str	x0, [x29,#56]
    583c:	140000f5 	b	5c10 <edesc+0x55c>
    5840:	b94027a0 	ldr	w0, [x29,#36]
    5844:	121d0000 	and	w0, w0, #0x8
    5848:	7100001f 	cmp	w0, #0x0
    584c:	54000181 	b.ne	587c <edesc+0x1c8>
    5850:	b0000140 	adrp	x0, 2e000 <__func__.5451+0x38>
    5854:	912a6000 	add	x0, x0, #0xa98
    5858:	b94027a2 	ldr	w2, [x29,#36]
    585c:	aa0003e1 	mov	x1, x0
    5860:	f9401fa0 	ldr	x0, [x29,#56]
    5864:	94005167 	bl	19e00 <sprintf>
    5868:	93407c00 	sxtw	x0, w0
    586c:	f9401fa1 	ldr	x1, [x29,#56]
    5870:	8b000020 	add	x0, x1, x0
    5874:	f9001fa0 	str	x0, [x29,#56]
    5878:	140000e6 	b	5c10 <edesc+0x55c>
    587c:	b0000140 	adrp	x0, 2e000 <__func__.5451+0x38>
    5880:	912ac000 	add	x0, x0, #0xab0
    5884:	b94027a2 	ldr	w2, [x29,#36]
    5888:	aa0003e1 	mov	x1, x0
    588c:	f9401fa0 	ldr	x0, [x29,#56]
    5890:	9400515c 	bl	19e00 <sprintf>
    5894:	93407c00 	sxtw	x0, w0
    5898:	f9401fa1 	ldr	x1, [x29,#56]
    589c:	8b000020 	add	x0, x1, x0
    58a0:	f9001fa0 	str	x0, [x29,#56]
    58a4:	140000db 	b	5c10 <edesc+0x55c>
    58a8:	b0000140 	adrp	x0, 2e000 <__func__.5451+0x38>
    58ac:	912b2000 	add	x0, x0, #0xac8
    58b0:	b94027a2 	ldr	w2, [x29,#36]
    58b4:	aa0003e1 	mov	x1, x0
    58b8:	f9401fa0 	ldr	x0, [x29,#56]
    58bc:	94005151 	bl	19e00 <sprintf>
    58c0:	93407c00 	sxtw	x0, w0
    58c4:	f9401fa1 	ldr	x1, [x29,#56]
    58c8:	8b000020 	add	x0, x1, x0
    58cc:	f9001fa0 	str	x0, [x29,#56]
    58d0:	140000d0 	b	5c10 <edesc+0x55c>
    58d4:	b0000140 	adrp	x0, 2e000 <__func__.5451+0x38>
    58d8:	912b6000 	add	x0, x0, #0xad8
    58dc:	b94027a2 	ldr	w2, [x29,#36]
    58e0:	aa0003e1 	mov	x1, x0
    58e4:	f9401fa0 	ldr	x0, [x29,#56]
    58e8:	94005146 	bl	19e00 <sprintf>
    58ec:	93407c00 	sxtw	x0, w0
    58f0:	f9401fa1 	ldr	x1, [x29,#56]
    58f4:	8b000020 	add	x0, x1, x0
    58f8:	f9001fa0 	str	x0, [x29,#56]
    58fc:	140000c5 	b	5c10 <edesc+0x55c>
    5900:	b0000140 	adrp	x0, 2e000 <__func__.5451+0x38>
    5904:	912ba000 	add	x0, x0, #0xae8
    5908:	b94027a2 	ldr	w2, [x29,#36]
    590c:	aa0003e1 	mov	x1, x0
    5910:	f9401fa0 	ldr	x0, [x29,#56]
    5914:	9400513b 	bl	19e00 <sprintf>
    5918:	93407c00 	sxtw	x0, w0
    591c:	f9401fa1 	ldr	x1, [x29,#56]
    5920:	8b000020 	add	x0, x1, x0
    5924:	f9001fa0 	str	x0, [x29,#56]
    5928:	140000ba 	b	5c10 <edesc+0x55c>
    592c:	b94027a0 	ldr	w0, [x29,#36]
    5930:	7100281f 	cmp	w0, #0xa
    5934:	540000c8 	b.hi	594c <edesc+0x298>
    5938:	7100201f 	cmp	w0, #0x8
    593c:	540002c2 	b.cs	5994 <edesc+0x2e0>
    5940:	7100081f 	cmp	w0, #0x2
    5944:	540007c8 	b.hi	5a3c <edesc+0x388>
    5948:	14000006 	b	5960 <edesc+0x2ac>
    594c:	71002c1f 	cmp	w0, #0xb
    5950:	540003c0 	b.eq	59c8 <edesc+0x314>
    5954:	71003c1f 	cmp	w0, #0xf
    5958:	54000540 	b.eq	5a00 <edesc+0x34c>
    595c:	14000038 	b	5a3c <edesc+0x388>
    5960:	b94027a0 	ldr	w0, [x29,#36]
    5964:	11000401 	add	w1, w0, #0x1
    5968:	b0000140 	adrp	x0, 2e000 <__func__.5451+0x38>
    596c:	912be000 	add	x0, x0, #0xaf8
    5970:	2a0103e2 	mov	w2, w1
    5974:	aa0003e1 	mov	x1, x0
    5978:	f9401fa0 	ldr	x0, [x29,#56]
    597c:	94005121 	bl	19e00 <sprintf>
    5980:	93407c00 	sxtw	x0, w0
    5984:	f9401fa1 	ldr	x1, [x29,#56]
    5988:	8b000020 	add	x0, x1, x0
    598c:	f9001fa0 	str	x0, [x29,#56]
    5990:	14000036 	b	5a68 <edesc+0x3b4>
    5994:	b94027a0 	ldr	w0, [x29,#36]
    5998:	51002001 	sub	w1, w0, #0x8
    599c:	b0000140 	adrp	x0, 2e000 <__func__.5451+0x38>
    59a0:	912c4000 	add	x0, x0, #0xb10
    59a4:	2a0103e2 	mov	w2, w1
    59a8:	aa0003e1 	mov	x1, x0
    59ac:	f9401fa0 	ldr	x0, [x29,#56]
    59b0:	94005114 	bl	19e00 <sprintf>
    59b4:	93407c00 	sxtw	x0, w0
    59b8:	f9401fa1 	ldr	x1, [x29,#56]
    59bc:	8b000020 	add	x0, x1, x0
    59c0:	f9001fa0 	str	x0, [x29,#56]
    59c4:	14000029 	b	5a68 <edesc+0x3b4>
    59c8:	f9401fa2 	ldr	x2, [x29,#56]
    59cc:	b0000140 	adrp	x0, 2e000 <__func__.5451+0x38>
    59d0:	912c8001 	add	x1, x0, #0xb20
    59d4:	aa0203e0 	mov	x0, x2
    59d8:	b9400022 	ldr	w2, [x1]
    59dc:	b9000002 	str	w2, [x0]
    59e0:	b8401021 	ldur	w1, [x1,#1]
    59e4:	b8001001 	stur	w1, [x0,#1]
    59e8:	52800080 	mov	w0, #0x4                   	// #4
    59ec:	93407c00 	sxtw	x0, w0
    59f0:	f9401fa1 	ldr	x1, [x29,#56]
    59f4:	8b000020 	add	x0, x1, x0
    59f8:	f9001fa0 	str	x0, [x29,#56]
    59fc:	1400001b 	b	5a68 <edesc+0x3b4>
    5a00:	f9401fa1 	ldr	x1, [x29,#56]
    5a04:	b0000140 	adrp	x0, 2e000 <__func__.5451+0x38>
    5a08:	912ca000 	add	x0, x0, #0xb28
    5a0c:	aa0103e2 	mov	x2, x1
    5a10:	aa0003e3 	mov	x3, x0
    5a14:	a9400460 	ldp	x0, x1, [x3]
    5a18:	a9000440 	stp	x0, x1, [x2]
    5a1c:	39404060 	ldrb	w0, [x3,#16]
    5a20:	39004040 	strb	w0, [x2,#16]
    5a24:	52800200 	mov	w0, #0x10                  	// #16
    5a28:	93407c00 	sxtw	x0, w0
    5a2c:	f9401fa1 	ldr	x1, [x29,#56]
    5a30:	8b000020 	add	x0, x1, x0
    5a34:	f9001fa0 	str	x0, [x29,#56]
    5a38:	1400000c 	b	5a68 <edesc+0x3b4>
    5a3c:	b0000140 	adrp	x0, 2e000 <__func__.5451+0x38>
    5a40:	912d0000 	add	x0, x0, #0xb40
    5a44:	b94027a2 	ldr	w2, [x29,#36]
    5a48:	aa0003e1 	mov	x1, x0
    5a4c:	f9401fa0 	ldr	x0, [x29,#56]
    5a50:	940050ec 	bl	19e00 <sprintf>
    5a54:	93407c00 	sxtw	x0, w0
    5a58:	f9401fa1 	ldr	x1, [x29,#56]
    5a5c:	8b000020 	add	x0, x1, x0
    5a60:	f9001fa0 	str	x0, [x29,#56]
    5a64:	d503201f 	nop
    5a68:	1400006a 	b	5c10 <edesc+0x55c>
    5a6c:	b94027a0 	ldr	w0, [x29,#36]
    5a70:	71002c1f 	cmp	w0, #0xb
    5a74:	540000c8 	b.hi	5a8c <edesc+0x3d8>
    5a78:	7100201f 	cmp	w0, #0x8
    5a7c:	540002c2 	b.cs	5ad4 <edesc+0x420>
    5a80:	71000c1f 	cmp	w0, #0x3
    5a84:	54000988 	b.hi	5bb4 <edesc+0x500>
    5a88:	14000008 	b	5aa8 <edesc+0x3f4>
    5a8c:	7100381f 	cmp	w0, #0xe
    5a90:	54000580 	b.eq	5b40 <edesc+0x48c>
    5a94:	71003c1f 	cmp	w0, #0xf
    5a98:	54000720 	b.eq	5b7c <edesc+0x4c8>
    5a9c:	7100341f 	cmp	w0, #0xd
    5aa0:	54000340 	b.eq	5b08 <edesc+0x454>
    5aa4:	14000044 	b	5bb4 <edesc+0x500>
    5aa8:	b0000140 	adrp	x0, 2e000 <__func__.5451+0x38>
    5aac:	912d4000 	add	x0, x0, #0xb50
    5ab0:	b94027a2 	ldr	w2, [x29,#36]
    5ab4:	aa0003e1 	mov	x1, x0
    5ab8:	f9401fa0 	ldr	x0, [x29,#56]
    5abc:	940050d1 	bl	19e00 <sprintf>
    5ac0:	93407c00 	sxtw	x0, w0
    5ac4:	f9401fa1 	ldr	x1, [x29,#56]
    5ac8:	8b000020 	add	x0, x1, x0
    5acc:	f9001fa0 	str	x0, [x29,#56]
    5ad0:	14000044 	b	5be0 <edesc+0x52c>
    5ad4:	b94027a0 	ldr	w0, [x29,#36]
    5ad8:	51002001 	sub	w1, w0, #0x8
    5adc:	b0000140 	adrp	x0, 2e000 <__func__.5451+0x38>
    5ae0:	912da000 	add	x0, x0, #0xb68
    5ae4:	2a0103e2 	mov	w2, w1
    5ae8:	aa0003e1 	mov	x1, x0
    5aec:	f9401fa0 	ldr	x0, [x29,#56]
    5af0:	940050c4 	bl	19e00 <sprintf>
    5af4:	93407c00 	sxtw	x0, w0
    5af8:	f9401fa1 	ldr	x1, [x29,#56]
    5afc:	8b000020 	add	x0, x1, x0
    5b00:	f9001fa0 	str	x0, [x29,#56]
    5b04:	14000037 	b	5be0 <edesc+0x52c>
    5b08:	f9401fa2 	ldr	x2, [x29,#56]
    5b0c:	b0000140 	adrp	x0, 2e000 <__func__.5451+0x38>
    5b10:	912e0001 	add	x1, x0, #0xb80
    5b14:	aa0203e0 	mov	x0, x2
    5b18:	f9400022 	ldr	x2, [x1]
    5b1c:	f9000002 	str	x2, [x0]
    5b20:	b8407021 	ldur	w1, [x1,#7]
    5b24:	b8007001 	stur	w1, [x0,#7]
    5b28:	52800140 	mov	w0, #0xa                   	// #10
    5b2c:	93407c00 	sxtw	x0, w0
    5b30:	f9401fa1 	ldr	x1, [x29,#56]
    5b34:	8b000020 	add	x0, x1, x0
    5b38:	f9001fa0 	str	x0, [x29,#56]
    5b3c:	14000029 	b	5be0 <edesc+0x52c>
    5b40:	f9401fa1 	ldr	x1, [x29,#56]
    5b44:	b0000140 	adrp	x0, 2e000 <__func__.5451+0x38>
    5b48:	912e4000 	add	x0, x0, #0xb90
    5b4c:	aa0103e2 	mov	x2, x1
    5b50:	aa0003e3 	mov	x3, x0
    5b54:	a9400460 	ldp	x0, x1, [x3]
    5b58:	a9000440 	stp	x0, x1, [x2]
    5b5c:	39404060 	ldrb	w0, [x3,#16]
    5b60:	39004040 	strb	w0, [x2,#16]
    5b64:	52800200 	mov	w0, #0x10                  	// #16
    5b68:	93407c00 	sxtw	x0, w0
    5b6c:	f9401fa1 	ldr	x1, [x29,#56]
    5b70:	8b000020 	add	x0, x1, x0
    5b74:	f9001fa0 	str	x0, [x29,#56]
    5b78:	1400001a 	b	5be0 <edesc+0x52c>
    5b7c:	f9401fa2 	ldr	x2, [x29,#56]
    5b80:	b0000140 	adrp	x0, 2e000 <__func__.5451+0x38>
    5b84:	912ea001 	add	x1, x0, #0xba8
    5b88:	aa0203e0 	mov	x0, x2
    5b8c:	b9400022 	ldr	w2, [x1]
    5b90:	b9000002 	str	w2, [x0]
    5b94:	b8401021 	ldur	w1, [x1,#1]
    5b98:	b8001001 	stur	w1, [x0,#1]
    5b9c:	52800080 	mov	w0, #0x4                   	// #4
    5ba0:	93407c00 	sxtw	x0, w0
    5ba4:	f9401fa1 	ldr	x1, [x29,#56]
    5ba8:	8b000020 	add	x0, x1, x0
    5bac:	f9001fa0 	str	x0, [x29,#56]
    5bb0:	1400000c 	b	5be0 <edesc+0x52c>
    5bb4:	b0000140 	adrp	x0, 2e000 <__func__.5451+0x38>
    5bb8:	912ec000 	add	x0, x0, #0xbb0
    5bbc:	b94027a2 	ldr	w2, [x29,#36]
    5bc0:	aa0003e1 	mov	x1, x0
    5bc4:	f9401fa0 	ldr	x0, [x29,#56]
    5bc8:	9400508e 	bl	19e00 <sprintf>
    5bcc:	93407c00 	sxtw	x0, w0
    5bd0:	f9401fa1 	ldr	x1, [x29,#56]
    5bd4:	8b000020 	add	x0, x1, x0
    5bd8:	f9001fa0 	str	x0, [x29,#56]
    5bdc:	d503201f 	nop
    5be0:	1400000c 	b	5c10 <edesc+0x55c>
    5be4:	b0000140 	adrp	x0, 2e000 <__func__.5451+0x38>
    5be8:	912f0000 	add	x0, x0, #0xbc0
    5bec:	b94027a2 	ldr	w2, [x29,#36]
    5bf0:	aa0003e1 	mov	x1, x0
    5bf4:	f9401fa0 	ldr	x0, [x29,#56]
    5bf8:	94005082 	bl	19e00 <sprintf>
    5bfc:	93407c00 	sxtw	x0, w0
    5c00:	f9401fa1 	ldr	x1, [x29,#56]
    5c04:	8b000020 	add	x0, x1, x0
    5c08:	f9001fa0 	str	x0, [x29,#56]
    5c0c:	d503201f 	nop
    5c10:	b94037a0 	ldr	w0, [x29,#52]
    5c14:	11000401 	add	w1, w0, #0x1
    5c18:	d0000140 	adrp	x0, 2f000 <known_boards+0x720>
    5c1c:	910f0002 	add	x2, x0, #0x3c0
    5c20:	2a0103e3 	mov	w3, w1
    5c24:	b94033a1 	ldr	w1, [x29,#48]
    5c28:	aa0103e0 	mov	x0, x1
    5c2c:	d37ff800 	lsl	x0, x0, #1
    5c30:	8b010000 	add	x0, x0, x1
    5c34:	8b030000 	add	x0, x0, x3
    5c38:	f8607841 	ldr	x1, [x2,x0,lsl #3]
    5c3c:	b0000140 	adrp	x0, 2e000 <__func__.5451+0x38>
    5c40:	9129e000 	add	x0, x0, #0xa78
    5c44:	aa0103e2 	mov	x2, x1
    5c48:	aa0003e1 	mov	x1, x0
    5c4c:	f9401fa0 	ldr	x0, [x29,#56]
    5c50:	9400506c 	bl	19e00 <sprintf>
    5c54:	93407c00 	sxtw	x0, w0
    5c58:	f9401fa1 	ldr	x1, [x29,#56]
    5c5c:	8b000020 	add	x0, x1, x0
    5c60:	f9001fa0 	str	x0, [x29,#56]
    5c64:	b94017a0 	ldr	w0, [x29,#20]
    5c68:	53077c00 	lsr	w0, w0, #7
    5c6c:	b90017a0 	str	w0, [x29,#20]
    5c70:	b94037a0 	ldr	w0, [x29,#52]
    5c74:	11000400 	add	w0, w0, #0x1
    5c78:	b90037a0 	str	w0, [x29,#52]
    5c7c:	b94037a1 	ldr	w1, [x29,#52]
    5c80:	b9402fa0 	ldr	w0, [x29,#44]
    5c84:	6b00003f 	cmp	w1, w0
    5c88:	54ffd8c3 	b.cc	57a0 <edesc+0xec>
    5c8c:	f9400fa0 	ldr	x0, [x29,#24]
    5c90:	a8c47bfd 	ldp	x29, x30, [sp],#64
    5c94:	d65f03c0 	ret

0000000000005c98 <_cs_etm_config_clean>:
    5c98:	d10083ff 	sub	sp, sp, #0x20
    5c9c:	f90007e0 	str	x0, [sp,#8]
    5ca0:	f94007e0 	ldr	x0, [sp,#8]
    5ca4:	52880de1 	mov	w1, #0x406f                	// #16495
    5ca8:	b9002401 	str	w1, [x0,#36]
    5cac:	f94007e0 	ldr	x0, [sp,#8]
    5cb0:	b9400000 	ldr	w0, [x0]
    5cb4:	321c0001 	orr	w1, w0, #0x10
    5cb8:	f94007e0 	ldr	x0, [sp,#8]
    5cbc:	b9000001 	str	w1, [x0]
    5cc0:	f94007e0 	ldr	x0, [sp,#8]
    5cc4:	52880de1 	mov	w1, #0x406f                	// #16495
    5cc8:	b9004801 	str	w1, [x0,#72]
    5ccc:	f94007e0 	ldr	x0, [sp,#8]
    5cd0:	b9400000 	ldr	w0, [x0]
    5cd4:	321b0001 	orr	w1, w0, #0x20
    5cd8:	f94007e0 	ldr	x0, [sp,#8]
    5cdc:	b9000001 	str	w1, [x0]
    5ce0:	f94007e0 	ldr	x0, [sp,#8]
    5ce4:	52880de1 	mov	w1, #0x406f                	// #16495
    5ce8:	b9002801 	str	w1, [x0,#40]
    5cec:	f94007e0 	ldr	x0, [sp,#8]
    5cf0:	7900581f 	strh	wzr, [x0,#44]
    5cf4:	f94007e0 	ldr	x0, [sp,#8]
    5cf8:	79005c1f 	strh	wzr, [x0,#46]
    5cfc:	f94007e0 	ldr	x0, [sp,#8]
    5d00:	b900301f 	str	wzr, [x0,#48]
    5d04:	f94007e0 	ldr	x0, [sp,#8]
    5d08:	b900341f 	str	wzr, [x0,#52]
    5d0c:	f94007e0 	ldr	x0, [sp,#8]
    5d10:	52880de1 	mov	w1, #0x406f                	// #16495
    5d14:	b9003801 	str	w1, [x0,#56]
    5d18:	f94007e0 	ldr	x0, [sp,#8]
    5d1c:	b9400000 	ldr	w0, [x0]
    5d20:	321d0001 	orr	w1, w0, #0x8
    5d24:	f94007e0 	ldr	x0, [sp,#8]
    5d28:	b9000001 	str	w1, [x0]
    5d2c:	f94007e0 	ldr	x0, [sp,#8]
    5d30:	f9400800 	ldr	x0, [x0,#16]
    5d34:	39400000 	ldrb	w0, [x0]
    5d38:	d3400c00 	ubfx	x0, x0, #0, #4
    5d3c:	12001c00 	and	w0, w0, #0xff
    5d40:	7100001f 	cmp	w0, #0x0
    5d44:	5400044d 	b.le	5dcc <_cs_etm_config_clean+0x134>
    5d48:	f94007e0 	ldr	x0, [sp,#8]
    5d4c:	b9400000 	ldr	w0, [x0]
    5d50:	32000001 	orr	w1, w0, #0x1
    5d54:	f94007e0 	ldr	x0, [sp,#8]
    5d58:	b9000001 	str	w1, [x0]
    5d5c:	b9001fff 	str	wzr, [sp,#28]
    5d60:	14000011 	b	5da4 <_cs_etm_config_clean+0x10c>
    5d64:	f94007e1 	ldr	x1, [sp,#8]
    5d68:	b9401fe0 	ldr	w0, [sp,#28]
    5d6c:	91002000 	add	x0, x0, #0x8
    5d70:	d37df000 	lsl	x0, x0, #3
    5d74:	8b000020 	add	x0, x1, x0
    5d78:	b9401000 	ldr	w0, [x0,#16]
    5d7c:	32000001 	orr	w1, w0, #0x1
    5d80:	f94007e2 	ldr	x2, [sp,#8]
    5d84:	b9401fe0 	ldr	w0, [sp,#28]
    5d88:	91002000 	add	x0, x0, #0x8
    5d8c:	d37df000 	lsl	x0, x0, #3
    5d90:	8b000040 	add	x0, x2, x0
    5d94:	b9001001 	str	w1, [x0,#16]
    5d98:	b9401fe0 	ldr	w0, [sp,#28]
    5d9c:	11000400 	add	w0, w0, #0x1
    5da0:	b9001fe0 	str	w0, [sp,#28]
    5da4:	f94007e0 	ldr	x0, [sp,#8]
    5da8:	f9400800 	ldr	x0, [x0,#16]
    5dac:	39400000 	ldrb	w0, [x0]
    5db0:	d3400c00 	ubfx	x0, x0, #0, #4
    5db4:	12001c00 	and	w0, w0, #0xff
    5db8:	531f7800 	lsl	w0, w0, #1
    5dbc:	2a0003e1 	mov	w1, w0
    5dc0:	b9401fe0 	ldr	w0, [sp,#28]
    5dc4:	6b00003f 	cmp	w1, w0
    5dc8:	54fffce8 	b.hi	5d64 <_cs_etm_config_clean+0xcc>
    5dcc:	f94007e0 	ldr	x0, [sp,#8]
    5dd0:	f9400800 	ldr	x0, [x0,#16]
    5dd4:	39400000 	ldrb	w0, [x0]
    5dd8:	d3441c00 	ubfx	x0, x0, #4, #4
    5ddc:	12001c00 	and	w0, w0, #0xff
    5de0:	7100001f 	cmp	w0, #0x0
    5de4:	540000cd 	b.le	5dfc <_cs_etm_config_clean+0x164>
    5de8:	f94007e0 	ldr	x0, [sp,#8]
    5dec:	b9400000 	ldr	w0, [x0]
    5df0:	321f0001 	orr	w1, w0, #0x2
    5df4:	f94007e0 	ldr	x0, [sp,#8]
    5df8:	b9000001 	str	w1, [x0]
    5dfc:	f94007e0 	ldr	x0, [sp,#8]
    5e00:	f9400800 	ldr	x0, [x0,#16]
    5e04:	39400400 	ldrb	w0, [x0,#1]
    5e08:	d3451c00 	ubfx	x0, x0, #5, #3
    5e0c:	12001c00 	and	w0, w0, #0xff
    5e10:	7100001f 	cmp	w0, #0x0
    5e14:	540005cd 	b.le	5ecc <_cs_etm_config_clean+0x234>
    5e18:	f94007e0 	ldr	x0, [sp,#8]
    5e1c:	b9400000 	ldr	w0, [x0]
    5e20:	321e0001 	orr	w1, w0, #0x4
    5e24:	f94007e0 	ldr	x0, [sp,#8]
    5e28:	b9000001 	str	w1, [x0]
    5e2c:	b9001fff 	str	wzr, [sp,#28]
    5e30:	1400001e 	b	5ea8 <_cs_etm_config_clean+0x210>
    5e34:	f94007e1 	ldr	x1, [sp,#8]
    5e38:	b9401fe0 	ldr	w0, [sp,#28]
    5e3c:	91004400 	add	x0, x0, #0x11
    5e40:	d37cec00 	lsl	x0, x0, #4
    5e44:	8b000020 	add	x0, x1, x0
    5e48:	b900101f 	str	wzr, [x0,#16]
    5e4c:	f94007e1 	ldr	x1, [sp,#8]
    5e50:	b9401fe0 	ldr	w0, [sp,#28]
    5e54:	91004400 	add	x0, x0, #0x11
    5e58:	d37cec00 	lsl	x0, x0, #4
    5e5c:	8b000020 	add	x0, x1, x0
    5e60:	b900041f 	str	wzr, [x0,#4]
    5e64:	f94007e1 	ldr	x1, [sp,#8]
    5e68:	b9401fe0 	ldr	w0, [sp,#28]
    5e6c:	91004400 	add	x0, x0, #0x11
    5e70:	d37cec00 	lsl	x0, x0, #4
    5e74:	8b000020 	add	x0, x1, x0
    5e78:	52880de1 	mov	w1, #0x406f                	// #16495
    5e7c:	b9000801 	str	w1, [x0,#8]
    5e80:	f94007e1 	ldr	x1, [sp,#8]
    5e84:	b9401fe0 	ldr	w0, [sp,#28]
    5e88:	91004400 	add	x0, x0, #0x11
    5e8c:	d37cec00 	lsl	x0, x0, #4
    5e90:	8b000020 	add	x0, x1, x0
    5e94:	52880de1 	mov	w1, #0x406f                	// #16495
    5e98:	b9000c01 	str	w1, [x0,#12]
    5e9c:	b9401fe0 	ldr	w0, [sp,#28]
    5ea0:	11000400 	add	w0, w0, #0x1
    5ea4:	b9001fe0 	str	w0, [sp,#28]
    5ea8:	f94007e0 	ldr	x0, [sp,#8]
    5eac:	f9400800 	ldr	x0, [x0,#16]
    5eb0:	39400400 	ldrb	w0, [x0,#1]
    5eb4:	d3451c00 	ubfx	x0, x0, #5, #3
    5eb8:	12001c00 	and	w0, w0, #0xff
    5ebc:	2a0003e1 	mov	w1, w0
    5ec0:	b9401fe0 	ldr	w0, [sp,#28]
    5ec4:	6b00003f 	cmp	w1, w0
    5ec8:	54fffb68 	b.hi	5e34 <_cs_etm_config_clean+0x19c>
    5ecc:	f94007e0 	ldr	x0, [sp,#8]
    5ed0:	f9400800 	ldr	x0, [x0,#16]
    5ed4:	39400c00 	ldrb	w0, [x0,#3]
    5ed8:	d3400400 	ubfx	x0, x0, #0, #2
    5edc:	12001c00 	and	w0, w0, #0xff
    5ee0:	7100001f 	cmp	w0, #0x0
    5ee4:	540000cd 	b.le	5efc <_cs_etm_config_clean+0x264>
    5ee8:	f94007e0 	ldr	x0, [sp,#8]
    5eec:	b9400000 	ldr	w0, [x0]
    5ef0:	321a0001 	orr	w1, w0, #0x40
    5ef4:	f94007e0 	ldr	x0, [sp,#8]
    5ef8:	b9000001 	str	w1, [x0]
    5efc:	f94007e0 	ldr	x0, [sp,#8]
    5f00:	f9400800 	ldr	x0, [x0,#16]
    5f04:	39400800 	ldrb	w0, [x0,#2]
    5f08:	12000000 	and	w0, w0, #0x1
    5f0c:	12001c00 	and	w0, w0, #0xff
    5f10:	7100001f 	cmp	w0, #0x0
    5f14:	54000300 	b.eq	5f74 <_cs_etm_config_clean+0x2dc>
    5f18:	f94007e0 	ldr	x0, [sp,#8]
    5f1c:	b9400000 	ldr	w0, [x0]
    5f20:	32180001 	orr	w1, w0, #0x100
    5f24:	f94007e0 	ldr	x0, [sp,#8]
    5f28:	b9000001 	str	w1, [x0]
    5f2c:	f94007e0 	ldr	x0, [sp,#8]
    5f30:	52800021 	mov	w1, #0x1                   	// #1
    5f34:	b901ac01 	str	w1, [x0,#428]
    5f38:	b9001fff 	str	wzr, [sp,#28]
    5f3c:	1400000b 	b	5f68 <_cs_etm_config_clean+0x2d0>
    5f40:	f94007e1 	ldr	x1, [sp,#8]
    5f44:	b9401fe0 	ldr	w0, [sp,#28]
    5f48:	9101a000 	add	x0, x0, #0x68
    5f4c:	d37ef400 	lsl	x0, x0, #2
    5f50:	8b000020 	add	x0, x1, x0
    5f54:	52880de1 	mov	w1, #0x406f                	// #16495
    5f58:	b9001001 	str	w1, [x0,#16]
    5f5c:	b9401fe0 	ldr	w0, [sp,#28]
    5f60:	11000400 	add	w0, w0, #0x1
    5f64:	b9001fe0 	str	w0, [sp,#28]
    5f68:	b9401fe0 	ldr	w0, [sp,#28]
    5f6c:	7100141f 	cmp	w0, #0x5
    5f70:	54fffe89 	b.ls	5f40 <_cs_etm_config_clean+0x2a8>
    5f74:	f94007e0 	ldr	x0, [sp,#8]
    5f78:	f9400800 	ldr	x0, [x0,#16]
    5f7c:	39400800 	ldrb	w0, [x0,#2]
    5f80:	d3441800 	ubfx	x0, x0, #4, #3
    5f84:	12001c00 	and	w0, w0, #0xff
    5f88:	7100001f 	cmp	w0, #0x0
    5f8c:	5400036d 	b.le	5ff8 <_cs_etm_config_clean+0x360>
    5f90:	f94007e0 	ldr	x0, [sp,#8]
    5f94:	b9400000 	ldr	w0, [x0]
    5f98:	32170001 	orr	w1, w0, #0x200
    5f9c:	f94007e0 	ldr	x0, [sp,#8]
    5fa0:	b9000001 	str	w1, [x0]
    5fa4:	b9001fff 	str	wzr, [sp,#28]
    5fa8:	1400000b 	b	5fd4 <_cs_etm_config_clean+0x33c>
    5fac:	f94007e1 	ldr	x1, [sp,#8]
    5fb0:	b9401fe0 	ldr	w0, [sp,#28]
    5fb4:	9101c000 	add	x0, x0, #0x70
    5fb8:	d37ef400 	lsl	x0, x0, #2
    5fbc:	8b000020 	add	x0, x1, x0
    5fc0:	52880de1 	mov	w1, #0x406f                	// #16495
    5fc4:	b9000801 	str	w1, [x0,#8]
    5fc8:	b9401fe0 	ldr	w0, [sp,#28]
    5fcc:	11000400 	add	w0, w0, #0x1
    5fd0:	b9001fe0 	str	w0, [sp,#28]
    5fd4:	f94007e0 	ldr	x0, [sp,#8]
    5fd8:	f9400800 	ldr	x0, [x0,#16]
    5fdc:	39400800 	ldrb	w0, [x0,#2]
    5fe0:	d3441800 	ubfx	x0, x0, #4, #3
    5fe4:	12001c00 	and	w0, w0, #0xff
    5fe8:	2a0003e1 	mov	w1, w0
    5fec:	b9401fe0 	ldr	w0, [sp,#28]
    5ff0:	6b00003f 	cmp	w1, w0
    5ff4:	54fffdc8 	b.hi	5fac <_cs_etm_config_clean+0x314>
    5ff8:	d503201f 	nop
    5ffc:	910083ff 	add	sp, sp, #0x20
    6000:	d65f03c0 	ret

0000000000006004 <cs_etm_static_config_init>:
    6004:	a9be7bfd 	stp	x29, x30, [sp,#-32]!
    6008:	910003fd 	mov	x29, sp
    600c:	f9000fa0 	str	x0, [x29,#24]
    6010:	d2800402 	mov	x2, #0x20                  	// #32
    6014:	52800001 	mov	w1, #0x0                   	// #0
    6018:	f9400fa0 	ldr	x0, [x29,#24]
    601c:	94004ac9 	bl	18b40 <memset>
    6020:	52800000 	mov	w0, #0x0                   	// #0
    6024:	a8c27bfd 	ldp	x29, x30, [sp],#32
    6028:	d65f03c0 	ret

000000000000602c <cs_etm_config_init>:
    602c:	a9be7bfd 	stp	x29, x30, [sp,#-32]!
    6030:	910003fd 	mov	x29, sp
    6034:	f9000fa0 	str	x0, [x29,#24]
    6038:	d2803c02 	mov	x2, #0x1e0                 	// #480
    603c:	52800001 	mov	w1, #0x0                   	// #0
    6040:	f9400fa0 	ldr	x0, [x29,#24]
    6044:	94004abf 	bl	18b40 <memset>
    6048:	f9400fa0 	ldr	x0, [x29,#24]
    604c:	12800001 	mov	w1, #0xffffffff            	// #-1
    6050:	b900cc01 	str	w1, [x0,#204]
    6054:	f9400fa0 	ldr	x0, [x29,#24]
    6058:	12800001 	mov	w1, #0xffffffff            	// #-1
    605c:	b9011001 	str	w1, [x0,#272]
    6060:	f9400fa0 	ldr	x0, [x29,#24]
    6064:	12800001 	mov	w1, #0xffffffff            	// #-1
    6068:	b9019401 	str	w1, [x0,#404]
    606c:	f9400fa0 	ldr	x0, [x29,#24]
    6070:	12800001 	mov	w1, #0xffffffff            	// #-1
    6074:	b901a801 	str	w1, [x0,#424]
    6078:	f9400fa0 	ldr	x0, [x29,#24]
    607c:	12800001 	mov	w1, #0xffffffff            	// #-1
    6080:	b901d801 	str	w1, [x0,#472]
    6084:	52800000 	mov	w0, #0x0                   	// #0
    6088:	a8c27bfd 	ldp	x29, x30, [sp],#32
    608c:	d65f03c0 	ret

0000000000006090 <cs_etm_config_get>:
    6090:	a9bb7bfd 	stp	x29, x30, [sp,#-80]!
    6094:	910003fd 	mov	x29, sp
    6098:	f9000fa0 	str	x0, [x29,#24]
    609c:	f9000ba1 	str	x1, [x29,#16]
    60a0:	f9400fa0 	ldr	x0, [x29,#24]
    60a4:	97ffece6 	bl	143c <cs_get_device_struct>
    60a8:	f9001fa0 	str	x0, [x29,#56]
    60ac:	f9401fa0 	ldr	x0, [x29,#56]
    60b0:	97fffd03 	bl	54bc <_cs_etm_version>
    60b4:	b90037a0 	str	w0, [x29,#52]
    60b8:	b94037a0 	ldr	w0, [x29,#52]
    60bc:	7100bc1f 	cmp	w0, #0x2f
    60c0:	540000c9 	b.ls	60d8 <cs_etm_config_get+0x48>
    60c4:	b94037a0 	ldr	w0, [x29,#52]
    60c8:	7100fc1f 	cmp	w0, #0x3f
    60cc:	54000068 	b.hi	60d8 <cs_etm_config_get+0x48>
    60d0:	52800020 	mov	w0, #0x1                   	// #1
    60d4:	14000002 	b	60dc <cs_etm_config_get+0x4c>
    60d8:	52800000 	mov	w0, #0x0                   	// #0
    60dc:	b90033a0 	str	w0, [x29,#48]
    60e0:	b94037a0 	ldr	w0, [x29,#52]
    60e4:	7100bc1f 	cmp	w0, #0x2f
    60e8:	1a9f87e0 	cset	w0, ls
    60ec:	12001c00 	and	w0, w0, #0xff
    60f0:	b9002fa0 	str	w0, [x29,#44]
    60f4:	f9401fa0 	ldr	x0, [x29,#56]
    60f8:	b9402400 	ldr	w0, [x0,#36]
    60fc:	7100041f 	cmp	w0, #0x1
    6100:	54000160 	b.eq	612c <cs_etm_config_get+0x9c>
    6104:	90000140 	adrp	x0, 2e000 <__func__.5451+0x38>
    6108:	9125a002 	add	x2, x0, #0x968
    610c:	b0000140 	adrp	x0, 2f000 <known_boards+0x720>
    6110:	91120001 	add	x1, x0, #0x480
    6114:	90000140 	adrp	x0, 2e000 <__func__.5451+0x38>
    6118:	91254000 	add	x0, x0, #0x950
    611c:	aa0203e3 	mov	x3, x2
    6120:	aa0103e2 	mov	x2, x1
    6124:	52802e01 	mov	w1, #0x170                 	// #368
    6128:	94003ed4 	bl	15c78 <__assert_func>
    612c:	b94037a0 	ldr	w0, [x29,#52]
    6130:	121c0c00 	and	w0, w0, #0xf0
    6134:	7100fc1f 	cmp	w0, #0x3f
    6138:	54000169 	b.ls	6164 <cs_etm_config_get+0xd4>
    613c:	90000140 	adrp	x0, 2e000 <__func__.5451+0x38>
    6140:	912f4002 	add	x2, x0, #0xbd0
    6144:	b0000140 	adrp	x0, 2f000 <known_boards+0x720>
    6148:	91120001 	add	x1, x0, #0x480
    614c:	90000140 	adrp	x0, 2e000 <__func__.5451+0x38>
    6150:	91254000 	add	x0, x0, #0x950
    6154:	aa0203e3 	mov	x3, x2
    6158:	aa0103e2 	mov	x2, x1
    615c:	52802e21 	mov	w1, #0x171                 	// #369
    6160:	94003ec6 	bl	15c78 <__assert_func>
    6164:	f9401fa0 	ldr	x0, [x29,#56]
    6168:	9103a001 	add	x1, x0, #0xe8
    616c:	f9400ba0 	ldr	x0, [x29,#16]
    6170:	f9000801 	str	x1, [x0,#16]
    6174:	f9401fa0 	ldr	x0, [x29,#56]
    6178:	91038001 	add	x1, x0, #0xe0
    617c:	f9400ba0 	ldr	x0, [x29,#16]
    6180:	f9000401 	str	x1, [x0,#8]
    6184:	f9400ba0 	ldr	x0, [x29,#16]
    6188:	b9400000 	ldr	w0, [x0]
    618c:	12190000 	and	w0, w0, #0x80
    6190:	7100001f 	cmp	w0, #0x0
    6194:	54000420 	b.eq	6218 <cs_etm_config_get+0x188>
    6198:	52800001 	mov	w1, #0x0                   	// #0
    619c:	f9401fa0 	ldr	x0, [x29,#56]
    61a0:	97ffed22 	bl	1628 <_cs_read>
    61a4:	2a0003e1 	mov	w1, w0
    61a8:	f9400ba0 	ldr	x0, [x29,#16]
    61ac:	b9001801 	str	w1, [x0,#24]
    61b0:	f9400ba0 	ldr	x0, [x29,#16]
    61b4:	39406800 	ldrb	w0, [x0,#26]
    61b8:	d3451400 	ubfx	x0, x0, #5, #1
    61bc:	12001c00 	and	w0, w0, #0xff
    61c0:	531d7000 	lsl	w0, w0, #3
    61c4:	f9400ba1 	ldr	x1, [x29,#16]
    61c8:	39406021 	ldrb	w1, [x1,#24]
    61cc:	d3441821 	ubfx	x1, x1, #4, #3
    61d0:	12001c21 	and	w1, w1, #0xff
    61d4:	2a010000 	orr	w0, w0, w1
    61d8:	2a0003e1 	mov	w1, w0
    61dc:	f9400ba0 	ldr	x0, [x29,#16]
    61e0:	b9001c01 	str	w1, [x0,#28]
    61e4:	f9400ba0 	ldr	x0, [x29,#16]
    61e8:	39406400 	ldrb	w0, [x0,#25]
    61ec:	d3451400 	ubfx	x0, x0, #5, #1
    61f0:	12001c00 	and	w0, w0, #0xff
    61f4:	531e7400 	lsl	w0, w0, #2
    61f8:	f9400ba1 	ldr	x1, [x29,#16]
    61fc:	39406821 	ldrb	w1, [x1,#26]
    6200:	d3400421 	ubfx	x1, x1, #0, #2
    6204:	12001c21 	and	w1, w1, #0xff
    6208:	2a010000 	orr	w0, w0, w1
    620c:	2a0003e1 	mov	w1, w0
    6210:	f9400ba0 	ldr	x0, [x29,#16]
    6214:	b9002001 	str	w1, [x0,#32]
    6218:	f9400ba0 	ldr	x0, [x29,#16]
    621c:	b9400000 	ldr	w0, [x0]
    6220:	121d0000 	and	w0, w0, #0x8
    6224:	7100001f 	cmp	w0, #0x0
    6228:	54000820 	b.eq	632c <cs_etm_config_get+0x29c>
    622c:	52800401 	mov	w1, #0x20                  	// #32
    6230:	f9401fa0 	ldr	x0, [x29,#56]
    6234:	97ffecfd 	bl	1628 <_cs_read>
    6238:	2a0003e1 	mov	w1, w0
    623c:	f9400ba0 	ldr	x0, [x29,#16]
    6240:	b9002801 	str	w1, [x0,#40]
    6244:	52800301 	mov	w1, #0x18                  	// #24
    6248:	f9401fa0 	ldr	x0, [x29,#56]
    624c:	97ffecf7 	bl	1628 <_cs_read>
    6250:	b9002ba0 	str	w0, [x29,#40]
    6254:	b9402ba0 	ldr	w0, [x29,#40]
    6258:	12003c01 	and	w1, w0, #0xffff
    625c:	f9400ba0 	ldr	x0, [x29,#16]
    6260:	79005801 	strh	w1, [x0,#44]
    6264:	b9402ba0 	ldr	w0, [x29,#40]
    6268:	53107c00 	lsr	w0, w0, #16
    626c:	12003c01 	and	w1, w0, #0xffff
    6270:	f9400ba0 	ldr	x0, [x29,#16]
    6274:	79005c01 	strh	w1, [x0,#46]
    6278:	52800481 	mov	w1, #0x24                  	// #36
    627c:	f9401fa0 	ldr	x0, [x29,#56]
    6280:	97ffecea 	bl	1628 <_cs_read>
    6284:	2a0003e1 	mov	w1, w0
    6288:	f9400ba0 	ldr	x0, [x29,#16]
    628c:	b9003001 	str	w1, [x0,#48]
    6290:	b94033a0 	ldr	w0, [x29,#48]
    6294:	7100001f 	cmp	w0, #0x0
    6298:	54000101 	b.ne	62b8 <cs_etm_config_get+0x228>
    629c:	52800381 	mov	w1, #0x1c                  	// #28
    62a0:	f9401fa0 	ldr	x0, [x29,#56]
    62a4:	97ffece1 	bl	1628 <_cs_read>
    62a8:	2a0003e1 	mov	w1, w0
    62ac:	f9400ba0 	ldr	x0, [x29,#16]
    62b0:	b9003401 	str	w1, [x0,#52]
    62b4:	14000003 	b	62c0 <cs_etm_config_get+0x230>
    62b8:	f9400ba0 	ldr	x0, [x29,#16]
    62bc:	b900341f 	str	wzr, [x0,#52]
    62c0:	b9402fa0 	ldr	w0, [x29,#44]
    62c4:	7100001f 	cmp	w0, #0x0
